
Pacemaker.elf:     file format elf32-littlenios2
Pacemaker.elf
architecture: nios2:r1, flags 0x00000112:
EXEC_P, HAS_SYMS, D_PAGED
start address 0x00800244

Program Header:
    LOAD off    0x00001000 vaddr 0x00800000 paddr 0x00800000 align 2**12
         filesz 0x00000020 memsz 0x00000020 flags r-x
    LOAD off    0x00001020 vaddr 0x00800020 paddr 0x00800020 align 2**12
         filesz 0x0000e0b8 memsz 0x0000e0b8 flags r-x
    LOAD off    0x0000f0d8 vaddr 0x0080e0d8 paddr 0x0080fd30 align 2**12
         filesz 0x00001c58 memsz 0x00001c58 flags rw-
    LOAD off    0x00011988 vaddr 0x00811988 paddr 0x00811988 align 2**12
         filesz 0x00000000 memsz 0x00000154 flags rw-

Sections:
Idx Name          Size      VMA       LMA       File off  Algn
  0 .entry        00000020  00800000  00800000  00001000  2**5
                  CONTENTS, ALLOC, LOAD, READONLY, CODE
  1 .exceptions   00000224  00800020  00800020  00001020  2**2
                  CONTENTS, ALLOC, LOAD, READONLY, CODE
  2 .text         0000da7c  00800244  00800244  00001244  2**2
                  CONTENTS, ALLOC, LOAD, READONLY, CODE
  3 .rodata       00000418  0080dcc0  0080dcc0  0000ecc0  2**2
                  CONTENTS, ALLOC, LOAD, READONLY, DATA
  4 .rwdata       00001c58  0080e0d8  0080fd30  0000f0d8  2**2
                  CONTENTS, ALLOC, LOAD, DATA, SMALL_DATA
  5 .bss          00000154  00811988  00811988  00011988  2**2
                  ALLOC, SMALL_DATA
  6 .sdram        00000000  00811adc  00811adc  00010d30  2**0
                  CONTENTS
  7 .onchip_mem   00000000  01008000  01008000  00010d30  2**0
                  CONTENTS
  8 .comment      00000023  00000000  00000000  00010d30  2**0
                  CONTENTS, READONLY
  9 .debug_aranges 00000d80  00000000  00000000  00010d58  2**3
                  CONTENTS, READONLY, DEBUGGING
 10 .debug_info   0001f2eb  00000000  00000000  00011ad8  2**0
                  CONTENTS, READONLY, DEBUGGING
 11 .debug_abbrev 000083f8  00000000  00000000  00030dc3  2**0
                  CONTENTS, READONLY, DEBUGGING
 12 .debug_line   0000a67b  00000000  00000000  000391bb  2**0
                  CONTENTS, READONLY, DEBUGGING
 13 .debug_frame  00001e40  00000000  00000000  00043838  2**2
                  CONTENTS, READONLY, DEBUGGING
 14 .debug_str    00003890  00000000  00000000  00045678  2**0
                  CONTENTS, READONLY, DEBUGGING
 15 .debug_loc    0000974b  00000000  00000000  00048f08  2**0
                  CONTENTS, READONLY, DEBUGGING
 16 .debug_alt_sim_info 00000060  00000000  00000000  00052654  2**2
                  CONTENTS, READONLY, DEBUGGING
 17 .debug_ranges 00000f70  00000000  00000000  000526b8  2**3
                  CONTENTS, READONLY, DEBUGGING
 18 .thread_model 00000003  00000000  00000000  000564e5  2**0
                  CONTENTS, READONLY
 19 .cpu          00000003  00000000  00000000  000564e8  2**0
                  CONTENTS, READONLY
 20 .qsys         00000001  00000000  00000000  000564eb  2**0
                  CONTENTS, READONLY
 21 .simulation_enabled 00000001  00000000  00000000  000564ec  2**0
                  CONTENTS, READONLY
 22 .stderr_dev   00000009  00000000  00000000  000564ed  2**0
                  CONTENTS, READONLY
 23 .stdin_dev    00000009  00000000  00000000  000564f6  2**0
                  CONTENTS, READONLY
 24 .stdout_dev   00000009  00000000  00000000  000564ff  2**0
                  CONTENTS, READONLY
 25 .sopc_system_name 0000000c  00000000  00000000  00056508  2**0
                  CONTENTS, READONLY
 26 .quartus_project_dir 00000020  00000000  00000000  00056514  2**0
                  CONTENTS, READONLY
 27 .sopcinfo     0006b17b  00000000  00000000  00056534  2**0
                  CONTENTS, READONLY
SYMBOL TABLE:
00800000 l    d  .entry	00000000 .entry
00800020 l    d  .exceptions	00000000 .exceptions
00800244 l    d  .text	00000000 .text
0080dcc0 l    d  .rodata	00000000 .rodata
0080e0d8 l    d  .rwdata	00000000 .rwdata
00811988 l    d  .bss	00000000 .bss
00811adc l    d  .sdram	00000000 .sdram
01008000 l    d  .onchip_mem	00000000 .onchip_mem
00000000 l    d  .comment	00000000 .comment
00000000 l    d  .debug_aranges	00000000 .debug_aranges
00000000 l    d  .debug_info	00000000 .debug_info
00000000 l    d  .debug_abbrev	00000000 .debug_abbrev
00000000 l    d  .debug_line	00000000 .debug_line
00000000 l    d  .debug_frame	00000000 .debug_frame
00000000 l    d  .debug_str	00000000 .debug_str
00000000 l    d  .debug_loc	00000000 .debug_loc
00000000 l    d  .debug_alt_sim_info	00000000 .debug_alt_sim_info
00000000 l    d  .debug_ranges	00000000 .debug_ranges
00000000 l    df *ABS*	00000000 C:/Git/Pacemaker/software/Pacemaker_bsp//obj/HAL/src/crt0.o
0080028c l       .text	00000000 alt_after_alt_main
00000000 l    df *ABS*	00000000 alt_irq_handler.c
00000000 l    df *ABS*	00000000 alt_instruction_exception_entry.c
00000000 l    df *ABS*	00000000 chart.c
00000000 l    df *ABS*	00000000 main.c
00000000 l    df *ABS*	00000000 state.c
00000000 l    df *ABS*	00000000 libgcc2.c
00000000 l    df *ABS*	00000000 adddf3.c
00000000 l    df *ABS*	00000000 gedf2.c
00000000 l    df *ABS*	00000000 ledf2.c
00000000 l    df *ABS*	00000000 muldf3.c
00000000 l    df *ABS*	00000000 subdf3.c
00000000 l    df *ABS*	00000000 floatunsidf.c
00000000 l    df *ABS*	00000000 libgcc2.c
00000000 l    df *ABS*	00000000 libgcc2.c
00000000 l    df *ABS*	00000000 fclose.c
00000000 l    df *ABS*	00000000 fflush.c
00000000 l    df *ABS*	00000000 findfp.c
008068d0 l     F .text	00000008 __fp_unlock
008068e4 l     F .text	0000019c __sinit.part.1
00806a80 l     F .text	00000008 __fp_lock
00000000 l    df *ABS*	00000000 fopen.c
00000000 l    df *ABS*	00000000 mallocr.c
00000000 l    df *ABS*	00000000 fseek.c
00000000 l    df *ABS*	00000000 fseeko.c
00000000 l    df *ABS*	00000000 fstatr.c
00000000 l    df *ABS*	00000000 fwalk.c
00000000 l    df *ABS*	00000000 fwrite.c
00000000 l    df *ABS*	00000000 impure.c
0080e0d8 l     O .rwdata	00000424 impure_data
00000000 l    df *ABS*	00000000 int_errno.c
00000000 l    df *ABS*	00000000 makebuf.c
00000000 l    df *ABS*	00000000 mallocr.c
00000000 l    df *ABS*	00000000 memset.c
00000000 l    df *ABS*	00000000 openr.c
00000000 l    df *ABS*	00000000 refill.c
00808464 l     F .text	0000001c lflush
00000000 l    df *ABS*	00000000 sbrkr.c
00000000 l    df *ABS*	00000000 stdio.c
00000000 l    df *ABS*	00000000 writer.c
00000000 l    df *ABS*	00000000 closer.c
00000000 l    df *ABS*	00000000 flags.c
00000000 l    df *ABS*	00000000 fvwrite.c
00000000 l    df *ABS*	00000000 isattyr.c
00000000 l    df *ABS*	00000000 lseekr.c
00000000 l    df *ABS*	00000000 memchr.c
00000000 l    df *ABS*	00000000 memcpy.c
00000000 l    df *ABS*	00000000 memmove.c
00000000 l    df *ABS*	00000000 readr.c
00000000 l    df *ABS*	00000000 mallocr.c
00000000 l    df *ABS*	00000000 wsetup.c
00000000 l    df *ABS*	00000000 lib2-divmod.c
00000000 l    df *ABS*	00000000 alt_alarm_start.c
00000000 l    df *ABS*	00000000 alt_close.c
00809c34 l     F .text	0000003c alt_get_errno
00000000 l    df *ABS*	00000000 alt_dev.c
00809d40 l     F .text	0000002c alt_dev_null_write
00000000 l    df *ABS*	00000000 alt_errno.c
00000000 l    df *ABS*	00000000 alt_fstat.c
00809d6c l     F .text	0000003c alt_get_errno
00000000 l    df *ABS*	00000000 alt_isatty.c
00809e58 l     F .text	0000003c alt_get_errno
00000000 l    df *ABS*	00000000 alt_load.c
00809f38 l     F .text	00000068 alt_load_section
00000000 l    df *ABS*	00000000 alt_lseek.c
0080a024 l     F .text	0000003c alt_get_errno
00000000 l    df *ABS*	00000000 alt_main.c
00000000 l    df *ABS*	00000000 alt_malloc_lock.c
00000000 l    df *ABS*	00000000 alt_open.c
0080a1f8 l     F .text	0000003c alt_get_errno
0080a234 l     F .text	000000c4 alt_file_locked
00000000 l    df *ABS*	00000000 alt_read.c
0080a44c l     F .text	0000003c alt_get_errno
00000000 l    df *ABS*	00000000 alt_release_fd.c
00000000 l    df *ABS*	00000000 alt_sbrk.c
0080fd18 l     O .rwdata	00000004 heap_end
00000000 l    df *ABS*	00000000 alt_tick.c
00000000 l    df *ABS*	00000000 alt_write.c
0080a83c l     F .text	0000003c alt_get_errno
00000000 l    df *ABS*	00000000 alt_sys_init.c
0080a970 l     F .text	00000034 alt_dev_reg
0080eaac l     O .rwdata	00001060 jtag_uart
0080fb0c l     O .rwdata	00000120 lcd
0080fc2c l     O .rwdata	000000c4 uart
00000000 l    df *ABS*	00000000 altera_avalon_jtag_uart_fd.c
00000000 l    df *ABS*	00000000 altera_avalon_jtag_uart_init.c
0080ac98 l     F .text	0000020c altera_avalon_jtag_uart_irq
0080aea4 l     F .text	000000a0 altera_avalon_jtag_uart_timeout
00000000 l    df *ABS*	00000000 altera_avalon_jtag_uart_ioctl.c
00000000 l    df *ABS*	00000000 altera_avalon_jtag_uart_read.c
00000000 l    df *ABS*	00000000 altera_avalon_jtag_uart_write.c
00000000 l    df *ABS*	00000000 altera_avalon_lcd_16207.c
0080fd24 l     O .rwdata	00000004 colstart
0080b4dc l     F .text	000000b8 lcd_write_command
0080b594 l     F .text	000000d8 lcd_write_data
0080b66c l     F .text	000000d0 lcd_clear_screen
0080b73c l     F .text	000001ec lcd_repaint_screen
0080b928 l     F .text	000000cc lcd_scroll_up
0080b9f4 l     F .text	000002ac lcd_handle_escape
0080c178 l     F .text	000000ac alt_lcd_16207_timeout
00000000 l    df *ABS*	00000000 altera_avalon_lcd_16207_fd.c
00000000 l    df *ABS*	00000000 altera_avalon_timer_sc.c
0080c3b8 l     F .text	00000078 alt_avalon_timer_sc_irq
00000000 l    df *ABS*	00000000 altera_avalon_uart_fd.c
00000000 l    df *ABS*	00000000 altera_avalon_uart_init.c
0080c668 l     F .text	0000009c altera_avalon_uart_irq
0080c704 l     F .text	000000e4 altera_avalon_uart_rxirq
0080c7e8 l     F .text	00000148 altera_avalon_uart_txirq
00000000 l    df *ABS*	00000000 altera_avalon_uart_read.c
0080c984 l     F .text	0000003c alt_get_errno
00000000 l    df *ABS*	00000000 altera_avalon_uart_write.c
0080cb9c l     F .text	0000003c alt_get_errno
00000000 l    df *ABS*	00000000 alt_dcache_flush_all.c
00000000 l    df *ABS*	00000000 alt_dev_llist_insert.c
0080cdcc l     F .text	0000003c alt_get_errno
00000000 l    df *ABS*	00000000 alt_do_ctors.c
00000000 l    df *ABS*	00000000 alt_do_dtors.c
00000000 l    df *ABS*	00000000 alt_find_dev.c
00000000 l    df *ABS*	00000000 alt_find_file.c
00000000 l    df *ABS*	00000000 alt_get_fd.c
00000000 l    df *ABS*	00000000 alt_icache_flush_all.c
00000000 l    df *ABS*	00000000 alt_iic.c
00000000 l    df *ABS*	00000000 alt_iic_isr_register.c
00000000 l    df *ABS*	00000000 alt_io_redirect.c
0080d47c l     F .text	000000c4 alt_open_fd
00000000 l    df *ABS*	00000000 alt_irq_vars.c
00000000 l    df *ABS*	00000000 alt_usleep.c
00000000 l    df *ABS*	00000000 altera_nios2_gen2_irq.c
00000000 l    df *ABS*	00000000 alt_busy_sleep.c
00000000 l    df *ABS*	00000000 alt_icache_flush.c
00000000 l    df *ABS*	00000000 atexit.c
00000000 l    df *ABS*	00000000 ctype_.c
0080df57 l     O .rodata	00000180 _ctype_b
00000000 l    df *ABS*	00000000 exit.c
00000000 l    df *ABS*	00000000 memcmp.c
00000000 l    df *ABS*	00000000 strlen.c
00000000 l    df *ABS*	00000000 __atexit.c
00000000 l    df *ABS*	00000000 __call_atexit.c
00000000 l    df *ABS*	00000000 alt_exit.c
008119b0 g     O .bss	00000004 alt_instruction_exception_handler
00808e00 g     F .text	00000054 _isatty_r
0080a134 g     F .text	0000007c alt_main
008119dc g     O .bss	00000100 alt_irq
00808e54 g     F .text	00000060 _lseek_r
0080fd30 g       *ABS*	00000000 __flash_rwdata_start
00808898 g     F .text	000000ac __sflags
00811adc g       *ABS*	00000000 __alt_heap_start
00808780 g     F .text	0000005c __sseek
00806c20 g     F .text	00000010 __sinit
00806a88 g     F .text	00000068 __sfmoreglue
0080a1d4 g     F .text	00000024 __malloc_unlock
008090e0 g     F .text	0000015c memmove
00806c08 g     F .text	00000018 _cleanup
00805234 g     F .text	000000dc .hidden __gtdf2
0080d5ec g     F .text	00000024 altera_nios2_gen2_irq_init
00800000 g     F .entry	0000001c __reset
00800020 g       *ABS*	00000000 __flash_exceptions_start
00807630 g     F .text	0000005c _fstat_r
00811988 g     O .bss	00000004 errno
008086fc g     F .text	00000008 __seofread
0081199c g     O .bss	00000004 alt_argv
00817cf0 g       *ABS*	00000000 _gp
0080d5bc g     F .text	00000030 usleep
00803fe4 g     F .text	00000100 reset
0080e92c g     O .rwdata	00000180 alt_fd_list
0080cf6c g     F .text	00000090 alt_find_dev
00808f98 g     F .text	00000148 memcpy
008068d8 g     F .text	0000000c _cleanup_r
0080d540 g     F .text	0000007c alt_io_redirect
00805310 g     F .text	000000f4 .hidden __ltdf2
0080dcc0 g       *ABS*	00000000 __DTOR_END__
0080d7f8 g     F .text	0000009c alt_exception_cause_generated_bad_addr
0080b09c g     F .text	0000021c altera_avalon_jtag_uart_read
00809a4c g     F .text	00000064 .hidden __udivsi3
00809e94 g     F .text	000000a4 isatty
0080d768 g     F .text	00000090 alt_icache_flush
00811994 g     O .bss	00000004 __malloc_top_pad
00808944 g     F .text	000004bc __sfvwrite_r
00808654 g     F .text	00000054 _sbrk_r
0080923c g     F .text	00000060 _read_r
0080fd10 g     O .rwdata	00000004 alt_max_fd
00806524 g     F .text	000000f0 _fclose_r
008068a0 g     F .text	00000030 fflush
00811990 g     O .bss	00000004 __malloc_max_sbrked_mem
00804988 g     F .text	000008ac .hidden __adddf3
0080a060 g     F .text	000000d4 lseek
0080fcf0 g     O .rwdata	00000004 _global_impure_ptr
0080929c g     F .text	00000564 _realloc_r
00811adc g       *ABS*	00000000 __bss_end
0080d38c g     F .text	000000f0 alt_iic_isr_register
0080a734 g     F .text	00000108 alt_tick
00806418 g     F .text	000000a8 .hidden __floatunsidf
0080c5bc g     F .text	000000ac altera_avalon_uart_init
00806c40 g     F .text	00000018 __fp_lock_all
0080d340 g     F .text	0000004c alt_ic_irq_enabled
0080a698 g     F .text	0000009c alt_alarm_stop
008119ac g     O .bss	00000004 alt_irq_active
008071d0 g     F .text	00000444 _fseeko_r
01008000 g       *ABS*	00000000 __alt_mem_onchip_mem
008000fc g     F .exceptions	000000d4 alt_irq_handler
0080e904 g     O .rwdata	00000028 alt_dev_null
008046e8 g     F .text	0000008c updateButtonInputs
0080cd84 g     F .text	00000048 alt_dcache_flush_all
0080fd30 g       *ABS*	00000000 __ram_rwdata_end
0080fd08 g     O .rwdata	00000008 alt_dev_list
0080a878 g     F .text	000000f8 write
0080e0d8 g       *ABS*	00000000 __ram_rodata_end
00809da8 g     F .text	000000b0 fstat
00805310 g     F .text	000000f4 .hidden __ledf2
00809ab0 g     F .text	00000058 .hidden __umodsi3
00811adc g       *ABS*	00000000 end
0080bca0 g     F .text	000004d8 altera_avalon_lcd_16207_write
00807614 g     F .text	0000001c fseeko
0080cbd8 g     F .text	000001ac altera_avalon_uart_write
008071b4 g     F .text	0000001c fseek
0080abd8 g     F .text	000000c0 altera_avalon_jtag_uart_init
008001d0 g     F .exceptions	00000074 alt_instruction_exception_entry
0080dcc0 g       *ABS*	00000000 __CTOR_LIST__
01000000 g       *ABS*	00000000 __alt_stack_pointer
0080c430 g     F .text	0000007c alt_avalon_timer_sc_init
0080c50c g     F .text	00000060 altera_avalon_uart_write_fd
008064c0 g     F .text	00000064 .hidden __clzsi2
0080c56c g     F .text	00000050 altera_avalon_uart_close_fd
0080b2b8 g     F .text	00000224 altera_avalon_jtag_uart_write
00806c30 g     F .text	00000004 __sfp_lock_acquire
00808eb4 g     F .text	000000e4 memchr
00806ea0 g     F .text	00000310 _free_r
0080db0c g     F .text	00000180 __call_exitprocs
0080fcf8 g     O .rwdata	00000004 __malloc_sbrk_base
00800244 g     F .text	0000004c _start
008119a4 g     O .bss	00000004 _alt_tick_rate
00804918 g     F .text	00000070 .hidden __floatundidf
008119a8 g     O .bss	00000004 _alt_nticks
0080a488 g     F .text	000000fc read
0080a9dc g     F .text	00000098 alt_sys_init
00808404 g     F .text	00000060 _open_r
0080d9f4 g     F .text	00000118 __register_exitproc
0080af44 g     F .text	00000068 altera_avalon_jtag_uart_close
0080e0d8 g       *ABS*	00000000 __ram_rwdata_start
0080dcc0 g       *ABS*	00000000 __ram_rodata_start
008119b4 g     O .bss	00000028 __malloc_current_mallinfo
0080aa74 g     F .text	00000060 altera_avalon_jtag_uart_read_fd
0080d104 g     F .text	000000a4 alt_get_fd
0080d610 g     F .text	00000158 alt_busy_sleep
00808844 g     F .text	00000054 _close_r
0080d8e0 g     F .text	0000007c memcmp
0080ab34 g     F .text	00000050 altera_avalon_jtag_uart_close_fd
00811adc g       *ABS*	00000000 __alt_stack_base
0080ab84 g     F .text	00000054 altera_avalon_jtag_uart_ioctl_fd
00807814 g     F .text	000000cc _fwrite_r
00809800 g     F .text	00000154 __swsetup_r
008040e4 g     F .text	0000016c tick
00806af0 g     F .text	00000118 __sfp
0080e4fc g     O .rwdata	00000408 __malloc_av_
00806c3c g     F .text	00000004 __sinit_lock_release
00805404 g     F .text	00000718 .hidden __muldf3
008086a8 g     F .text	00000054 __sread
0080cffc g     F .text	00000108 alt_find_file
0080ce08 g     F .text	000000a4 alt_dev_llist_insert
0080a1b0 g     F .text	00000024 __malloc_lock
0080a5e8 g     F .text	000000b0 sbrk
00806844 g     F .text	0000005c _fflush_r
00806d64 g     F .text	00000018 fopen
00811988 g       *ABS*	00000000 __bss_start
008082dc g     F .text	00000128 memset
00804290 g     F .text	00000458 main
008119a0 g     O .bss	00000004 alt_envp
0081198c g     O .bss	00000004 __malloc_max_total_mem
0080aad4 g     F .text	00000060 altera_avalon_jtag_uart_write_fd
0080c224 g     F .text	00000134 altera_avalon_lcd_16207_init
008087dc g     F .text	00000008 __sclose
01000000 g       *ABS*	00000000 __alt_heap_limit
00806614 g     F .text	00000014 fclose
00807ad0 g     F .text	0000080c _malloc_r
0080fd14 g     O .rwdata	00000004 alt_errno
00804774 g     F .text	0000008c updateUartInputs
0080768c g     F .text	000000c4 _fwalk
00809954 g     F .text	00000084 .hidden __divsi3
00806d7c g     F .text	00000124 _malloc_trim_r
0080dcc0 g       *ABS*	00000000 __CTOR_END__
0080dcc0 g       *ABS*	00000000 __flash_rodata_start
0080dcc0 g       *ABS*	00000000 __DTOR_LIST__
0080a9a4 g     F .text	00000038 alt_irq_init
0080a584 g     F .text	00000064 alt_release_fd
0080dd0d g     O .rodata	00000100 .hidden __clz_tab
0080d894 g     F .text	00000014 atexit
008087e4 g     F .text	00000060 _write_r
0080fcf4 g     O .rwdata	00000004 _impure_ptr
00811998 g     O .bss	00000004 alt_argc
00806628 g     F .text	0000021c __sflush_r
0080cf0c g     F .text	00000060 _do_dtors
008071b0 g     F .text	00000004 _fseek_r
00808480 g     F .text	000001d4 __srefill_r
00800020 g       .exceptions	00000000 alt_irq_entry
00806c58 g     F .text	00000018 __fp_unlock_all
0080c358 g     F .text	00000060 altera_avalon_lcd_16207_write_fd
0080fd00 g     O .rwdata	00000008 alt_fs_list
00800020 g       *ABS*	00000000 __ram_exceptions_start
00804250 g     F .text	00000040 timerISR
0080d1dc g     F .text	00000050 alt_ic_isr_register
008078e0 g     F .text	00000034 fwrite
0080fd30 g       *ABS*	00000000 _edata
0080c4ac g     F .text	00000060 altera_avalon_uart_read_fd
00811adc g       *ABS*	00000000 _end
00800244 g       *ABS*	00000000 __ram_exceptions_end
0080afac g     F .text	000000f0 altera_avalon_jtag_uart_ioctl
0080d2b4 g     F .text	0000008c alt_ic_irq_disable
00808704 g     F .text	0000007c __swrite
0080fcfc g     O .rwdata	00000004 __malloc_trim_threshold
0080d8a8 g     F .text	00000038 exit
00807750 g     F .text	000000c4 _fwalk_reent
008099d8 g     F .text	00000074 .hidden __modsi3
00800290 g     F .text	00003d54 logic
0080fd2c g     O .rwdata	00000004 __ctype_ptr__
01000000 g       *ABS*	00000000 __alt_data_end
00800020 g     F .exceptions	00000000 alt_exception
00806c34 g     F .text	00000004 __sfp_lock_release
00800000 g       *ABS*	00000000 __alt_mem_sdram
0080de56 g     O .rodata	00000101 _ctype_
0080c930 g     F .text	00000054 altera_avalon_uart_close
00806c70 g     F .text	000000f4 _fopen_r
0080dc8c g     F .text	00000034 _exit
00809b08 g     F .text	0000012c alt_alarm_start
00807914 g     F .text	000001bc __smakebuf_r
0080d95c g     F .text	00000098 strlen
0080a2f8 g     F .text	00000154 open
00805234 g     F .text	000000dc .hidden __gedf2
0080d1a8 g     F .text	00000034 alt_icache_flush_all
0080fd28 g     O .rwdata	00000004 alt_priority_mask
0080d22c g     F .text	00000088 alt_ic_irq_enable
0080c9c0 g     F .text	000001dc altera_avalon_uart_read
00805b1c g     F .text	000008fc .hidden __subdf3
00804800 g     F .text	00000118 updateState
0080fd1c g     O .rwdata	00000008 alt_alarm_list
0080ceac g     F .text	00000060 _do_ctors
00809c70 g     F .text	000000d0 close
00809fa0 g     F .text	00000084 alt_load
00806c38 g     F .text	00000004 __sinit_lock_acquire



Disassembly of section .entry:

00800000 <__reset>:
#if NIOS2_ICACHE_SIZE > 0 && defined(ALT_ALLOW_CODE_AT_RESET) && (!defined(ALT_SIM_OPTIMIZE) || defined(NIOS2_ECC_PRESENT))
    /* Assume the instruction cache size is always a power of two. */
#if NIOS2_ICACHE_SIZE > 0x8000
    movhi r2, %hi(NIOS2_ICACHE_SIZE)
#else
    movui r2, NIOS2_ICACHE_SIZE
  800000:	00840014 	movui	r2,4096
#endif

0:
    initi r2
  800004:	1001483a 	initi	r2
    addi r2, r2, -NIOS2_ICACHE_LINE_SIZE
  800008:	10bff804 	addi	r2,r2,-32
    bgt r2, zero, 0b
  80000c:	00bffd16 	blt	zero,r2,800004 <__alt_mem_onchip_mem+0xff7f8004>
 * Jump to the _start entry point in the .text section if reset code
 * is allowed or if optimizing for RTL simulation.
 */
#if defined(ALT_ALLOW_CODE_AT_RESET) || defined(ALT_SIM_OPTIMIZE)
    /* Jump to the _start entry point in the .text section. */
    movhi r1, %hi(_start)
  800010:	00402034 	movhi	at,128
    ori r1, r1, %lo(_start)
  800014:	08409114 	ori	at,at,580
    jmp r1
  800018:	0800683a 	jmp	at
  80001c:	00000000 	call	0 <__alt_mem_sdram-0x800000>

Disassembly of section .exceptions:

00800020 <alt_exception>:

#else /* ALT_EXCEPTION_STACK disabled */
        /* 
         * Reserve space on normal stack for registers about to be pushed.
         */
        addi  sp, sp, -76
  800020:	deffed04 	addi	sp,sp,-76
         * documentation for details).
         *
         * Leave a gap in the stack frame at 4(sp) for the muldiv handler to
         * store zero into.
         */
        stw   ra,  0(sp)
  800024:	dfc00015 	stw	ra,0(sp)
        stw   r1,   8(sp)
  800028:	d8400215 	stw	at,8(sp)
        stw   r2,  12(sp)
  80002c:	d8800315 	stw	r2,12(sp)
        stw   r3,  16(sp)
  800030:	d8c00415 	stw	r3,16(sp)
        stw   r4,  20(sp)
  800034:	d9000515 	stw	r4,20(sp)
        stw   r5,  24(sp)
  800038:	d9400615 	stw	r5,24(sp)
        stw   r6,  28(sp)
  80003c:	d9800715 	stw	r6,28(sp)
        stw   r7,  32(sp)
  800040:	d9c00815 	stw	r7,32(sp)
        rdctl r5, estatus   /* Read early to avoid usage stall */
  800044:	000b307a 	rdctl	r5,estatus
        stw   r8,  36(sp)
  800048:	da000915 	stw	r8,36(sp)
        stw   r9,  40(sp)
  80004c:	da400a15 	stw	r9,40(sp)
        stw   r10, 44(sp)
  800050:	da800b15 	stw	r10,44(sp)
        stw   r11, 48(sp)
  800054:	dac00c15 	stw	r11,48(sp)
        stw   r12, 52(sp)
  800058:	db000d15 	stw	r12,52(sp)
        stw   r13, 56(sp)
  80005c:	db400e15 	stw	r13,56(sp)
        stw   r14, 60(sp)
  800060:	db800f15 	stw	r14,60(sp)
        stw   r15, 64(sp)
  800064:	dbc01015 	stw	r15,64(sp)
        /*
         * ea-4 contains the address of the instruction being executed
         * when the exception occured. For interrupt exceptions, we will
         * will be re-issue the isntruction. Store it in 72(sp)
         */
        stw   r5,  68(sp)  /* estatus */
  800068:	d9401115 	stw	r5,68(sp)
        addi  r15, ea, -4  /* instruction that caused exception */
  80006c:	ebffff04 	addi	r15,ea,-4
        stw   r15,  72(sp)
  800070:	dbc01215 	stw	r15,72(sp)
#else
        /*
         * Test to see if the exception was a software exception or caused 
         * by an external interrupt, and vector accordingly.
         */
        rdctl r4, ipending
  800074:	0009313a 	rdctl	r4,ipending
        andi  r2, r5, 1
  800078:	2880004c 	andi	r2,r5,1
        beq   r2, zero, .Lnot_irq
  80007c:	10000326 	beq	r2,zero,80008c <alt_exception+0x6c>
        beq   r4, zero, .Lnot_irq
  800080:	20000226 	beq	r4,zero,80008c <alt_exception+0x6c>
        /*
         * Now that all necessary registers have been preserved, call 
         * alt_irq_handler() to process the interrupts.
         */

        call alt_irq_handler
  800084:	08000fc0 	call	8000fc <alt_irq_handler>

        .section .exceptions.irqreturn, "xa"

        br    .Lexception_exit
  800088:	00000706 	br	8000a8 <alt_exception+0x88>
         * upon completion, so we write ea (address of instruction *after*
         * the one where the exception occured) into 72(sp). The actual
         * instruction that caused the exception is written in r2, which these
         * handlers will utilize.
         */
        stw ea, 72(sp) /* EA is PC+4 so will skip over instruction causing exception */
  80008c:	df401215 	stw	ea,72(sp)
.Lunknown_16bit:
        addi.n r4, r4, 2 /* Need PC+2 to skip over instruction causing exception */
        stw r4, 72(sp)

#else /* CDX is not Enabled and all instructions are 32bits */
        ldw r2, -4(ea) /* Instruction value that caused exception */
  800090:	e8bfff17 	ldw	r2,-4(ea)
         * debugger is present) or go into an infinite loop since the
         * handling behavior is undefined; in that case we will not return here.
         */

        /* Load exception-causing address as first argument (r4) */
        addi   r4, ea, -4
  800094:	e93fff04 	addi	r4,ea,-4

        /* Call the instruction-exception entry */
        call   alt_instruction_exception_entry
  800098:	08001d00 	call	8001d0 <alt_instruction_exception_entry>
         * instruction
         *
         * Return code was 0: Skip. The instruction after the exception is
         * already stored in 72(sp).
         */
        bne   r2, r0, .Lexception_exit
  80009c:	1000021e 	bne	r2,zero,8000a8 <alt_exception+0x88>

        /*
         * Otherwise, modify 72(sp) to re-issue the instruction that caused the
         * exception.
         */
        addi  r15, ea, -4  /* instruction that caused exception */
  8000a0:	ebffff04 	addi	r15,ea,-4
        stw   r15,  72(sp)
  8000a4:	dbc01215 	stw	r15,72(sp)
        /* 
         * Restore the saved registers, so that all general purpose registers 
         * have been restored to their state at the time the interrupt occured.
         */

        ldw   r5,  68(sp)
  8000a8:	d9401117 	ldw	r5,68(sp)
        ldw   ea,  72(sp)  /* This becomes the PC once eret is executed */
  8000ac:	df401217 	ldw	ea,72(sp)
        ldw   ra,   0(sp)
  8000b0:	dfc00017 	ldw	ra,0(sp)

        wrctl estatus, r5
  8000b4:	2801707a 	wrctl	estatus,r5

        ldw   r1,   8(sp)
  8000b8:	d8400217 	ldw	at,8(sp)
        ldw   r2,  12(sp)
  8000bc:	d8800317 	ldw	r2,12(sp)
        ldw   r3,  16(sp)
  8000c0:	d8c00417 	ldw	r3,16(sp)
        ldw   r4,  20(sp)
  8000c4:	d9000517 	ldw	r4,20(sp)
        ldw   r5,  24(sp)
  8000c8:	d9400617 	ldw	r5,24(sp)
        ldw   r6,  28(sp)
  8000cc:	d9800717 	ldw	r6,28(sp)
        ldw   r7,  32(sp)
  8000d0:	d9c00817 	ldw	r7,32(sp)

#if defined(ALT_EXCEPTION_STACK) && defined(ALT_STACK_CHECK)
        ldw   et, %gprel(alt_exception_old_stack_limit)(gp)
#endif

        ldw   r8,  36(sp)
  8000d4:	da000917 	ldw	r8,36(sp)
        ldw   r9,  40(sp)
  8000d8:	da400a17 	ldw	r9,40(sp)
        ldw   r10, 44(sp)
  8000dc:	da800b17 	ldw	r10,44(sp)
        ldw   r11, 48(sp)
  8000e0:	dac00c17 	ldw	r11,48(sp)
        ldw   r12, 52(sp)
  8000e4:	db000d17 	ldw	r12,52(sp)
        ldw   r13, 56(sp)
  8000e8:	db400e17 	ldw	r13,56(sp)
        ldw   r14, 60(sp)
  8000ec:	db800f17 	ldw	r14,60(sp)
        ldw   r15, 64(sp)
  8000f0:	dbc01017 	ldw	r15,64(sp)
        stw   et, %gprel(alt_stack_limit_value)(gp)
        stw   zero, %gprel(alt_exception_old_stack_limit)(gp)
#endif /* ALT_STACK_CHECK */
        ldw   sp,  76(sp)
#else /* ALT_EXCEPTION_STACK disabled */
        addi  sp, sp, 76
  8000f4:	dec01304 	addi	sp,sp,76

        /*
         * Return to the interrupted instruction.
         */

        eret
  8000f8:	ef80083a 	eret

008000fc <alt_irq_handler>:
 * instruction is present if the macro ALT_CI_INTERRUPT_VECTOR defined.
 */

void alt_irq_handler (void) __attribute__ ((section (".exceptions")));
void alt_irq_handler (void)
{
  8000fc:	defff904 	addi	sp,sp,-28
  800100:	dfc00615 	stw	ra,24(sp)
  800104:	df000515 	stw	fp,20(sp)
  800108:	df000504 	addi	fp,sp,20
  
  /*
   * Notify the operating system that we are at interrupt level.
   */ 
  
  ALT_OS_INT_ENTER();
  80010c:	0001883a 	nop
#ifndef NIOS2_EIC_PRESENT
static ALT_INLINE alt_u32 ALT_ALWAYS_INLINE alt_irq_pending (void)
{
  alt_u32 active;

  NIOS2_READ_IPENDING (active);
  800110:	0005313a 	rdctl	r2,ipending
  800114:	e0bffe15 	stw	r2,-8(fp)

  return active;
  800118:	e0bffe17 	ldw	r2,-8(fp)
   * Consider the case where the high priority interupt is asserted during
   * the interrupt entry sequence for a lower priority interrupt to see why
   * this is the case.
   */

  active = alt_irq_pending ();
  80011c:	e0bffb15 	stw	r2,-20(fp)

  do
  {
    i = 0;
  800120:	e03ffd15 	stw	zero,-12(fp)
    mask = 1;
  800124:	00800044 	movi	r2,1
  800128:	e0bffc15 	stw	r2,-16(fp)
     * called to clear the interrupt condition.
     */

    do
    {
      if (active & mask)
  80012c:	e0fffb17 	ldw	r3,-20(fp)
  800130:	e0bffc17 	ldw	r2,-16(fp)
  800134:	1884703a 	and	r2,r3,r2
  800138:	10001426 	beq	r2,zero,80018c <alt_irq_handler+0x90>
      { 
#ifdef ALT_ENHANCED_INTERRUPT_API_PRESENT
        alt_irq[i].handler(alt_irq[i].context); 
  80013c:	00802074 	movhi	r2,129
  800140:	10867704 	addi	r2,r2,6620
  800144:	e0fffd17 	ldw	r3,-12(fp)
  800148:	180690fa 	slli	r3,r3,3
  80014c:	10c5883a 	add	r2,r2,r3
  800150:	10c00017 	ldw	r3,0(r2)
  800154:	00802074 	movhi	r2,129
  800158:	10867704 	addi	r2,r2,6620
  80015c:	e13ffd17 	ldw	r4,-12(fp)
  800160:	200890fa 	slli	r4,r4,3
  800164:	1105883a 	add	r2,r2,r4
  800168:	10800104 	addi	r2,r2,4
  80016c:	10800017 	ldw	r2,0(r2)
  800170:	1009883a 	mov	r4,r2
  800174:	183ee83a 	callr	r3
#else
        alt_irq[i].handler(alt_irq[i].context, i); 
#endif
        break;
  800178:	0001883a 	nop
#ifndef NIOS2_EIC_PRESENT
static ALT_INLINE alt_u32 ALT_ALWAYS_INLINE alt_irq_pending (void)
{
  alt_u32 active;

  NIOS2_READ_IPENDING (active);
  80017c:	0005313a 	rdctl	r2,ipending
  800180:	e0bfff15 	stw	r2,-4(fp)

  return active;
  800184:	e0bfff17 	ldw	r2,-4(fp)
  800188:	00000706 	br	8001a8 <alt_irq_handler+0xac>
      }
      mask <<= 1;
  80018c:	e0bffc17 	ldw	r2,-16(fp)
  800190:	1085883a 	add	r2,r2,r2
  800194:	e0bffc15 	stw	r2,-16(fp)
      i++;
  800198:	e0bffd17 	ldw	r2,-12(fp)
  80019c:	10800044 	addi	r2,r2,1
  8001a0:	e0bffd15 	stw	r2,-12(fp)

    } while (1);
  8001a4:	003fe106 	br	80012c <__alt_mem_onchip_mem+0xff7f812c>

    active = alt_irq_pending ();
  8001a8:	e0bffb15 	stw	r2,-20(fp)
    
  } while (active);
  8001ac:	e0bffb17 	ldw	r2,-20(fp)
  8001b0:	103fdb1e 	bne	r2,zero,800120 <__alt_mem_onchip_mem+0xff7f8120>

  /*
   * Notify the operating system that interrupt processing is complete.
   */ 

  ALT_OS_INT_EXIT();
  8001b4:	0001883a 	nop
}
  8001b8:	0001883a 	nop
  8001bc:	e037883a 	mov	sp,fp
  8001c0:	dfc00117 	ldw	ra,4(sp)
  8001c4:	df000017 	ldw	fp,0(sp)
  8001c8:	dec00204 	addi	sp,sp,8
  8001cc:	f800283a 	ret

008001d0 <alt_instruction_exception_entry>:
 * that handler if it has been registered. Absent a handler, it will
 * break break or hang as discussed below.
 */
int 
alt_instruction_exception_entry (alt_u32 exception_pc)
{
  8001d0:	defffb04 	addi	sp,sp,-20
  8001d4:	dfc00415 	stw	ra,16(sp)
  8001d8:	df000315 	stw	fp,12(sp)
  8001dc:	df000304 	addi	fp,sp,12
  8001e0:	e13fff15 	stw	r4,-4(fp)
 * NIOS2_EXCEPTION_CAUSE_NOT_PRESENT. Your handling routine should
 * check the validity of the cause argument before proceeding.
 */
#ifdef NIOS2_HAS_EXTRA_EXCEPTION_INFO
  /* Get exception cause & "badaddr" */
  NIOS2_READ_EXCEPTION(cause);
  8001e4:	000531fa 	rdctl	r2,exception
  8001e8:	e0bffd15 	stw	r2,-12(fp)
  cause = ( (cause & NIOS2_EXCEPTION_REG_CAUSE_MASK) >>
  8001ec:	e0bffd17 	ldw	r2,-12(fp)
  8001f0:	10801f0c 	andi	r2,r2,124
  8001f4:	1004d0ba 	srli	r2,r2,2
  8001f8:	e0bffd15 	stw	r2,-12(fp)
              NIOS2_EXCEPTION_REG_CAUSE_OFST );

  NIOS2_READ_BADADDR(badaddr);
  8001fc:	0005333a 	rdctl	r2,badaddr
  800200:	e0bffe15 	stw	r2,-8(fp)
#else
  cause = NIOS2_EXCEPTION_CAUSE_NOT_PRESENT;
  badaddr = 0;
#endif /* NIOS2_HAS_EXTRA_EXCEPTION_INFO */

  if(alt_instruction_exception_handler) {
  800204:	d0a73017 	ldw	r2,-25408(gp)
  800208:	10000726 	beq	r2,zero,800228 <alt_instruction_exception_entry+0x58>
     * Call handler. Its return value indicates whether the exception-causing
     * instruction should be re-issued. The code that called us,
     * alt_eceptions_entry.S, will look at this value and adjust the ea
     * register as necessary
     */
    return alt_instruction_exception_handler(cause, exception_pc, badaddr);
  80020c:	d0a73017 	ldw	r2,-25408(gp)
  800210:	e0fffd17 	ldw	r3,-12(fp)
  800214:	e1bffe17 	ldw	r6,-8(fp)
  800218:	e17fff17 	ldw	r5,-4(fp)
  80021c:	1809883a 	mov	r4,r3
  800220:	103ee83a 	callr	r2
  800224:	00000206 	br	800230 <alt_instruction_exception_entry+0x60>
   *    (a peripheral which negates its interrupt output before its
   *    interrupt handler has been executed will cause spurious interrupts)
   */
  else {
#ifdef NIOS2_HAS_DEBUG_STUB
    NIOS2_BREAK();
  800228:	003da03a 	break	0
      ;
#endif /* NIOS2_HAS_DEBUG_STUB */
  }

  /* We should not get here. Remove compiler warning. */
  return NIOS2_EXCEPTION_RETURN_REISSUE_INST;
  80022c:	0005883a 	mov	r2,zero
}
  800230:	e037883a 	mov	sp,fp
  800234:	dfc00117 	ldw	ra,4(sp)
  800238:	df000017 	ldw	fp,0(sp)
  80023c:	dec00204 	addi	sp,sp,8
  800240:	f800283a 	ret

Disassembly of section .text:

00800244 <_start>:

    /* Assume the data cache size is always a power of two. */
#if NIOS2_DCACHE_SIZE > 0x8000
    movhi r2, %hi(NIOS2_DCACHE_SIZE)
#else
    movui r2, NIOS2_DCACHE_SIZE
  800244:	00820014 	movui	r2,2048
#endif

0:
    initd 0(r2)
  800248:	10000033 	initd	0(r2)
#ifdef NIOS2_ECC_PRESENT
    addi r2, r2, -4
#else
    addi r2, r2, -NIOS2_DCACHE_LINE_SIZE
  80024c:	10bff804 	addi	r2,r2,-32
#endif
    bgt r2, zero, 0b
  800250:	00bffd16 	blt	zero,r2,800248 <__alt_mem_onchip_mem+0xff7f8248>

    /*
     * Now that the caches are initialized, set up the stack pointer and global pointer.
     * The values provided by the linker are assumed to be correctly aligned.
     */
    movhi sp, %hi(__alt_stack_pointer)
  800254:	06c04034 	movhi	sp,256
    ori sp, sp, %lo(__alt_stack_pointer)
  800258:	dec00014 	ori	sp,sp,0
    movhi gp, %hi(_gp)
  80025c:	06802074 	movhi	gp,129
    ori gp, gp, %lo(_gp)
  800260:	d69f3c14 	ori	gp,gp,31984
 */
#ifndef ALT_SIM_OPTIMIZE
    /* Log that the BSS is about to be cleared. */
    ALT_LOG_PUTS(alt_log_msg_bss)

    movhi r2, %hi(__bss_start)
  800264:	00802074 	movhi	r2,129
    ori r2, r2, %lo(__bss_start)
  800268:	10866214 	ori	r2,r2,6536

    movhi r3, %hi(__bss_end)
  80026c:	00c02074 	movhi	r3,129
    ori r3, r3, %lo(__bss_end)
  800270:	18c6b714 	ori	r3,r3,6876

    beq r2, r3, 1f
  800274:	10c00326 	beq	r2,r3,800284 <_start+0x40>

0:
    stw zero, (r2)
  800278:	10000015 	stw	zero,0(r2)
    addi r2, r2, 4
  80027c:	10800104 	addi	r2,r2,4
    bltu r2, r3, 0b
  800280:	10fffd36 	bltu	r2,r3,800278 <__alt_mem_onchip_mem+0xff7f8278>
     * section aren't defined until alt_load() has been called).
     */
    mov   et, zero
#endif

    call alt_load
  800284:	0809fa00 	call	809fa0 <alt_load>

    /* Log that alt_main is about to be called. */
    ALT_LOG_PUTS(alt_log_msg_alt_main)

    /* Call the C entry point. It should never return. */
    call alt_main
  800288:	080a1340 	call	80a134 <alt_main>

0080028c <alt_after_alt_main>:

    /* Wait in infinite loop in case alt_main does return. */
alt_after_alt_main:
    br alt_after_alt_main
  80028c:	003fff06 	br	80028c <__alt_mem_onchip_mem+0xff7f828c>

00800290 <logic>:
#include "../inc/timing.h"
#include "../inc/chart.h"



void logic(TickData* d) {
  800290:	defffb04 	addi	sp,sp,-20
  800294:	dfc00415 	stw	ra,16(sp)
  800298:	df000315 	stw	fp,12(sp)
  80029c:	dc400215 	stw	r17,8(sp)
  8002a0:	dc000115 	stw	r16,4(sp)
  8002a4:	df000304 	addi	fp,sp,12
  8002a8:	e13ffd15 	stw	r4,-12(fp)
  d->_g45 = d->_pg36;
  8002ac:	e0bffd17 	ldw	r2,-12(fp)
  8002b0:	10c02b43 	ldbu	r3,173(r2)
  8002b4:	e0bffd17 	ldw	r2,-12(fp)
  8002b8:	10c01145 	stb	r3,69(r2)
  if (d->_g45) {
  8002bc:	e0bffd17 	ldw	r2,-12(fp)
  8002c0:	10801143 	ldbu	r2,69(r2)
  8002c4:	10803fcc 	andi	r2,r2,255
  8002c8:	1080201c 	xori	r2,r2,128
  8002cc:	10bfe004 	addi	r2,r2,-128
  8002d0:	10001226 	beq	r2,zero,80031c <logic+0x8c>
    d->_region0_Atrium_VentricleTimer += d->deltaT;
  8002d4:	e13ffd17 	ldw	r4,-12(fp)
  8002d8:	20800017 	ldw	r2,0(r4)
  8002dc:	20c00117 	ldw	r3,4(r4)
  8002e0:	e1bffd17 	ldw	r6,-12(fp)
  8002e4:	31000417 	ldw	r4,16(r6)
  8002e8:	31400517 	ldw	r5,20(r6)
  8002ec:	200d883a 	mov	r6,r4
  8002f0:	280f883a 	mov	r7,r5
  8002f4:	1009883a 	mov	r4,r2
  8002f8:	180b883a 	mov	r5,r3
  8002fc:	08049880 	call	804988 <__adddf3>
  800300:	1009883a 	mov	r4,r2
  800304:	180b883a 	mov	r5,r3
  800308:	2005883a 	mov	r2,r4
  80030c:	2807883a 	mov	r3,r5
  800310:	e13ffd17 	ldw	r4,-12(fp)
  800314:	20800015 	stw	r2,0(r4)
  800318:	20c00115 	stw	r3,4(r4)
  }
  d->_g46_e1 = !d->_g45;
  80031c:	e0bffd17 	ldw	r2,-12(fp)
  800320:	10801143 	ldbu	r2,69(r2)
  800324:	10803fcc 	andi	r2,r2,255
  800328:	1080201c 	xori	r2,r2,128
  80032c:	10bfe004 	addi	r2,r2,-128
  800330:	1005003a 	cmpeq	r2,r2,zero
  800334:	1007883a 	mov	r3,r2
  800338:	e0bffd17 	ldw	r2,-12(fp)
  80033c:	10c02945 	stb	r3,165(r2)
  d->_g97 = d->_pg59;
  800340:	e0bffd17 	ldw	r2,-12(fp)
  800344:	10c02b83 	ldbu	r3,174(r2)
  800348:	e0bffd17 	ldw	r2,-12(fp)
  80034c:	10c01785 	stb	r3,94(r2)
  d->_cg97 = d->_region0_Atrium_VentricleTimer >= VRP_VALUE && d->VS;
  800350:	e13ffd17 	ldw	r4,-12(fp)
  800354:	20800017 	ldw	r2,0(r4)
  800358:	20c00117 	ldw	r3,4(r4)
  80035c:	000d883a 	mov	r6,zero
  800360:	01d018f4 	movhi	r7,16483
  800364:	39f00004 	addi	r7,r7,-16384
  800368:	1009883a 	mov	r4,r2
  80036c:	180b883a 	mov	r5,r3
  800370:	08052340 	call	805234 <__gedf2>
  800374:	10000816 	blt	r2,zero,800398 <logic+0x108>
  800378:	e0bffd17 	ldw	r2,-12(fp)
  80037c:	10800843 	ldbu	r2,33(r2)
  800380:	10803fcc 	andi	r2,r2,255
  800384:	1080201c 	xori	r2,r2,128
  800388:	10bfe004 	addi	r2,r2,-128
  80038c:	10000226 	beq	r2,zero,800398 <logic+0x108>
  800390:	00800044 	movi	r2,1
  800394:	00000106 	br	80039c <logic+0x10c>
  800398:	0005883a 	mov	r2,zero
  80039c:	1007883a 	mov	r3,r2
  8003a0:	e0bffd17 	ldw	r2,-12(fp)
  8003a4:	10c02705 	stb	r3,156(r2)
  d->_g98 = d->_g97 && d->_cg97;
  8003a8:	e0bffd17 	ldw	r2,-12(fp)
  8003ac:	10801783 	ldbu	r2,94(r2)
  8003b0:	10803fcc 	andi	r2,r2,255
  8003b4:	1080201c 	xori	r2,r2,128
  8003b8:	10bfe004 	addi	r2,r2,-128
  8003bc:	10000826 	beq	r2,zero,8003e0 <logic+0x150>
  8003c0:	e0bffd17 	ldw	r2,-12(fp)
  8003c4:	10802703 	ldbu	r2,156(r2)
  8003c8:	10803fcc 	andi	r2,r2,255
  8003cc:	1080201c 	xori	r2,r2,128
  8003d0:	10bfe004 	addi	r2,r2,-128
  8003d4:	10000226 	beq	r2,zero,8003e0 <logic+0x150>
  8003d8:	00800044 	movi	r2,1
  8003dc:	00000106 	br	8003e4 <logic+0x154>
  8003e0:	0005883a 	mov	r2,zero
  8003e4:	1007883a 	mov	r3,r2
  8003e8:	e0bffd17 	ldw	r2,-12(fp)
  8003ec:	10c017c5 	stb	r3,95(r2)
  if (d->_g98) {
  8003f0:	e0bffd17 	ldw	r2,-12(fp)
  8003f4:	108017c3 	ldbu	r2,95(r2)
  8003f8:	10803fcc 	andi	r2,r2,255
  8003fc:	1080201c 	xori	r2,r2,128
  800400:	10bfe004 	addi	r2,r2,-128
  800404:	10000326 	beq	r2,zero,800414 <logic+0x184>
    d->_Pacemaker_local__Atrig2 = 1;
  800408:	e0bffd17 	ldw	r2,-12(fp)
  80040c:	00c00044 	movi	r3,1
  800410:	10c00985 	stb	r3,38(r2)
  }
  d->_g82 = d->_pg45;
  800414:	e0bffd17 	ldw	r2,-12(fp)
  800418:	10c02bc3 	ldbu	r3,175(r2)
  80041c:	e0bffd17 	ldw	r2,-12(fp)
  800420:	10c01605 	stb	r3,88(r2)
  if (d->_g82) {
  800424:	e0bffd17 	ldw	r2,-12(fp)
  800428:	10801603 	ldbu	r2,88(r2)
  80042c:	10803fcc 	andi	r2,r2,255
  800430:	1080201c 	xori	r2,r2,128
  800434:	10bfe004 	addi	r2,r2,-128
  800438:	10001226 	beq	r2,zero,800484 <logic+0x1f4>
    d->_region0_Atrium_AtriumTimer += d->deltaT;
  80043c:	e13ffd17 	ldw	r4,-12(fp)
  800440:	20800217 	ldw	r2,8(r4)
  800444:	20c00317 	ldw	r3,12(r4)
  800448:	e1bffd17 	ldw	r6,-12(fp)
  80044c:	31000417 	ldw	r4,16(r6)
  800450:	31400517 	ldw	r5,20(r6)
  800454:	200d883a 	mov	r6,r4
  800458:	280f883a 	mov	r7,r5
  80045c:	1009883a 	mov	r4,r2
  800460:	180b883a 	mov	r5,r3
  800464:	08049880 	call	804988 <__adddf3>
  800468:	1009883a 	mov	r4,r2
  80046c:	180b883a 	mov	r5,r3
  800470:	2005883a 	mov	r2,r4
  800474:	2807883a 	mov	r3,r5
  800478:	e13ffd17 	ldw	r4,-12(fp)
  80047c:	20800215 	stw	r2,8(r4)
  800480:	20c00315 	stw	r3,12(r4)
  }
  d->_g100 = d->_g97 && !d->_cg97;
  800484:	e0bffd17 	ldw	r2,-12(fp)
  800488:	10801783 	ldbu	r2,94(r2)
  80048c:	10803fcc 	andi	r2,r2,255
  800490:	1080201c 	xori	r2,r2,128
  800494:	10bfe004 	addi	r2,r2,-128
  800498:	10000826 	beq	r2,zero,8004bc <logic+0x22c>
  80049c:	e0bffd17 	ldw	r2,-12(fp)
  8004a0:	10802703 	ldbu	r2,156(r2)
  8004a4:	10803fcc 	andi	r2,r2,255
  8004a8:	1080201c 	xori	r2,r2,128
  8004ac:	10bfe004 	addi	r2,r2,-128
  8004b0:	1000021e 	bne	r2,zero,8004bc <logic+0x22c>
  8004b4:	00800044 	movi	r2,1
  8004b8:	00000106 	br	8004c0 <logic+0x230>
  8004bc:	0005883a 	mov	r2,zero
  8004c0:	1007883a 	mov	r3,r2
  8004c4:	e0bffd17 	ldw	r2,-12(fp)
  8004c8:	10c01845 	stb	r3,97(r2)
  d->_cg100 = d->_region0_Atrium_VentricleTimer >= URI_VALUE && d->_region0_Atrium_AtriumTimer >= AVI_VALUE;
  8004cc:	e13ffd17 	ldw	r4,-12(fp)
  8004d0:	20800017 	ldw	r2,0(r4)
  8004d4:	20c00117 	ldw	r3,4(r4)
  8004d8:	000d883a 	mov	r6,zero
  8004dc:	01d02334 	movhi	r7,16524
  8004e0:	39c80004 	addi	r7,r7,8192
  8004e4:	1009883a 	mov	r4,r2
  8004e8:	180b883a 	mov	r5,r3
  8004ec:	08052340 	call	805234 <__gedf2>
  8004f0:	10000c16 	blt	r2,zero,800524 <logic+0x294>
  8004f4:	e13ffd17 	ldw	r4,-12(fp)
  8004f8:	20800217 	ldw	r2,8(r4)
  8004fc:	20c00317 	ldw	r3,12(r4)
  800500:	000d883a 	mov	r6,zero
  800504:	01d01cf4 	movhi	r7,16499
  800508:	39f00004 	addi	r7,r7,-16384
  80050c:	1009883a 	mov	r4,r2
  800510:	180b883a 	mov	r5,r3
  800514:	08052340 	call	805234 <__gedf2>
  800518:	10000216 	blt	r2,zero,800524 <logic+0x294>
  80051c:	00800044 	movi	r2,1
  800520:	00000106 	br	800528 <logic+0x298>
  800524:	0005883a 	mov	r2,zero
  800528:	1007883a 	mov	r3,r2
  80052c:	e0bffd17 	ldw	r2,-12(fp)
  800530:	10c02745 	stb	r3,157(r2)
  d->_g101 = d->_g100 && d->_cg100;
  800534:	e0bffd17 	ldw	r2,-12(fp)
  800538:	10801843 	ldbu	r2,97(r2)
  80053c:	10803fcc 	andi	r2,r2,255
  800540:	1080201c 	xori	r2,r2,128
  800544:	10bfe004 	addi	r2,r2,-128
  800548:	10000826 	beq	r2,zero,80056c <logic+0x2dc>
  80054c:	e0bffd17 	ldw	r2,-12(fp)
  800550:	10802743 	ldbu	r2,157(r2)
  800554:	10803fcc 	andi	r2,r2,255
  800558:	1080201c 	xori	r2,r2,128
  80055c:	10bfe004 	addi	r2,r2,-128
  800560:	10000226 	beq	r2,zero,80056c <logic+0x2dc>
  800564:	00800044 	movi	r2,1
  800568:	00000106 	br	800570 <logic+0x2e0>
  80056c:	0005883a 	mov	r2,zero
  800570:	1007883a 	mov	r3,r2
  800574:	e0bffd17 	ldw	r2,-12(fp)
  800578:	10c01885 	stb	r3,98(r2)
  if (d->_g101) {
  80057c:	e0bffd17 	ldw	r2,-12(fp)
  800580:	10801883 	ldbu	r2,98(r2)
  800584:	10803fcc 	andi	r2,r2,255
  800588:	1080201c 	xori	r2,r2,128
  80058c:	10bfe004 	addi	r2,r2,-128
  800590:	10000326 	beq	r2,zero,8005a0 <logic+0x310>
    d->_Pacemaker_local__Atrig3 = 1;
  800594:	e0bffd17 	ldw	r2,-12(fp)
  800598:	00c00044 	movi	r3,1
  80059c:	10c009c5 	stb	r3,39(r2)
  }
  d->_g100 = d->_g100 && !d->_cg100;
  8005a0:	e0bffd17 	ldw	r2,-12(fp)
  8005a4:	10801843 	ldbu	r2,97(r2)
  8005a8:	10803fcc 	andi	r2,r2,255
  8005ac:	1080201c 	xori	r2,r2,128
  8005b0:	10bfe004 	addi	r2,r2,-128
  8005b4:	10000826 	beq	r2,zero,8005d8 <logic+0x348>
  8005b8:	e0bffd17 	ldw	r2,-12(fp)
  8005bc:	10802743 	ldbu	r2,157(r2)
  8005c0:	10803fcc 	andi	r2,r2,255
  8005c4:	1080201c 	xori	r2,r2,128
  8005c8:	10bfe004 	addi	r2,r2,-128
  8005cc:	1000021e 	bne	r2,zero,8005d8 <logic+0x348>
  8005d0:	00800044 	movi	r2,1
  8005d4:	00000106 	br	8005dc <logic+0x34c>
  8005d8:	0005883a 	mov	r2,zero
  8005dc:	1007883a 	mov	r3,r2
  8005e0:	e0bffd17 	ldw	r2,-12(fp)
  8005e4:	10c01845 	stb	r3,97(r2)
  d->_cg102 = d->_region0_Atrium_VentricleTimer >= LRI_VALUE;
  8005e8:	e13ffd17 	ldw	r4,-12(fp)
  8005ec:	20800017 	ldw	r2,0(r4)
  8005f0:	20c00117 	ldw	r3,4(r4)
  8005f4:	04000044 	movi	r16,1
  8005f8:	000d883a 	mov	r6,zero
  8005fc:	01d023b4 	movhi	r7,16526
  800600:	39ec0004 	addi	r7,r7,-20480
  800604:	1009883a 	mov	r4,r2
  800608:	180b883a 	mov	r5,r3
  80060c:	08052340 	call	805234 <__gedf2>
  800610:	1000010e 	bge	r2,zero,800618 <logic+0x388>
  800614:	0021883a 	mov	r16,zero
  800618:	8007883a 	mov	r3,r16
  80061c:	e0bffd17 	ldw	r2,-12(fp)
  800620:	10c026c5 	stb	r3,155(r2)
  d->_g103 = d->_g100 && d->_cg102;
  800624:	e0bffd17 	ldw	r2,-12(fp)
  800628:	10801843 	ldbu	r2,97(r2)
  80062c:	10803fcc 	andi	r2,r2,255
  800630:	1080201c 	xori	r2,r2,128
  800634:	10bfe004 	addi	r2,r2,-128
  800638:	10000826 	beq	r2,zero,80065c <logic+0x3cc>
  80063c:	e0bffd17 	ldw	r2,-12(fp)
  800640:	108026c3 	ldbu	r2,155(r2)
  800644:	10803fcc 	andi	r2,r2,255
  800648:	1080201c 	xori	r2,r2,128
  80064c:	10bfe004 	addi	r2,r2,-128
  800650:	10000226 	beq	r2,zero,80065c <logic+0x3cc>
  800654:	00800044 	movi	r2,1
  800658:	00000106 	br	800660 <logic+0x3d0>
  80065c:	0005883a 	mov	r2,zero
  800660:	1007883a 	mov	r3,r2
  800664:	e0bffd17 	ldw	r2,-12(fp)
  800668:	10c018c5 	stb	r3,99(r2)
  if (d->_g103) {
  80066c:	e0bffd17 	ldw	r2,-12(fp)
  800670:	108018c3 	ldbu	r2,99(r2)
  800674:	10803fcc 	andi	r2,r2,255
  800678:	1080201c 	xori	r2,r2,128
  80067c:	10bfe004 	addi	r2,r2,-128
  800680:	10000326 	beq	r2,zero,800690 <logic+0x400>
    d->_Pacemaker_local__Atrig4 = 1;
  800684:	e0bffd17 	ldw	r2,-12(fp)
  800688:	00c00044 	movi	r3,1
  80068c:	10c00a05 	stb	r3,40(r2)
  }
  d->_cg45 = d->_Pacemaker_local__Atrig2 || d->_Pacemaker_local__Atrig3 || d->_Pacemaker_local__Atrig4;
  800690:	e0bffd17 	ldw	r2,-12(fp)
  800694:	10800983 	ldbu	r2,38(r2)
  800698:	10803fcc 	andi	r2,r2,255
  80069c:	1080201c 	xori	r2,r2,128
  8006a0:	10bfe004 	addi	r2,r2,-128
  8006a4:	10000c1e 	bne	r2,zero,8006d8 <logic+0x448>
  8006a8:	e0bffd17 	ldw	r2,-12(fp)
  8006ac:	108009c3 	ldbu	r2,39(r2)
  8006b0:	10803fcc 	andi	r2,r2,255
  8006b4:	1080201c 	xori	r2,r2,128
  8006b8:	10bfe004 	addi	r2,r2,-128
  8006bc:	1000061e 	bne	r2,zero,8006d8 <logic+0x448>
  8006c0:	e0bffd17 	ldw	r2,-12(fp)
  8006c4:	10800a03 	ldbu	r2,40(r2)
  8006c8:	10803fcc 	andi	r2,r2,255
  8006cc:	1080201c 	xori	r2,r2,128
  8006d0:	10bfe004 	addi	r2,r2,-128
  8006d4:	10000226 	beq	r2,zero,8006e0 <logic+0x450>
  8006d8:	00800044 	movi	r2,1
  8006dc:	00000106 	br	8006e4 <logic+0x454>
  8006e0:	0005883a 	mov	r2,zero
  8006e4:	1007883a 	mov	r3,r2
  8006e8:	e0bffd17 	ldw	r2,-12(fp)
  8006ec:	10c02005 	stb	r3,128(r2)
  d->_g46 = d->_g45 && d->_cg45;
  8006f0:	e0bffd17 	ldw	r2,-12(fp)
  8006f4:	10801143 	ldbu	r2,69(r2)
  8006f8:	10803fcc 	andi	r2,r2,255
  8006fc:	1080201c 	xori	r2,r2,128
  800700:	10bfe004 	addi	r2,r2,-128
  800704:	10000826 	beq	r2,zero,800728 <logic+0x498>
  800708:	e0bffd17 	ldw	r2,-12(fp)
  80070c:	10802003 	ldbu	r2,128(r2)
  800710:	10803fcc 	andi	r2,r2,255
  800714:	1080201c 	xori	r2,r2,128
  800718:	10bfe004 	addi	r2,r2,-128
  80071c:	10000226 	beq	r2,zero,800728 <logic+0x498>
  800720:	00800044 	movi	r2,1
  800724:	00000106 	br	80072c <logic+0x49c>
  800728:	0005883a 	mov	r2,zero
  80072c:	1007883a 	mov	r3,r2
  800730:	e0bffd17 	ldw	r2,-12(fp)
  800734:	10c01185 	stb	r3,70(r2)
  d->_g56 = d->_pg14;
  800738:	e0bffd17 	ldw	r2,-12(fp)
  80073c:	10c02c03 	ldbu	r3,176(r2)
  800740:	e0bffd17 	ldw	r2,-12(fp)
  800744:	10c01345 	stb	r3,77(r2)
  d->_g50 = d->_pg33;
  800748:	e0bffd17 	ldw	r2,-12(fp)
  80074c:	10c02c43 	ldbu	r3,177(r2)
  800750:	e0bffd17 	ldw	r2,-12(fp)
  800754:	10c01205 	stb	r3,72(r2)
  d->_g53_e2 = !(d->_g56 || d->_g50);
  800758:	e0bffd17 	ldw	r2,-12(fp)
  80075c:	10801343 	ldbu	r2,77(r2)
  800760:	10803fcc 	andi	r2,r2,255
  800764:	1080201c 	xori	r2,r2,128
  800768:	10bfe004 	addi	r2,r2,-128
  80076c:	1000081e 	bne	r2,zero,800790 <logic+0x500>
  800770:	e0bffd17 	ldw	r2,-12(fp)
  800774:	10801203 	ldbu	r2,72(r2)
  800778:	10803fcc 	andi	r2,r2,255
  80077c:	1080201c 	xori	r2,r2,128
  800780:	10bfe004 	addi	r2,r2,-128
  800784:	1000021e 	bne	r2,zero,800790 <logic+0x500>
  800788:	00800044 	movi	r2,1
  80078c:	00000106 	br	800794 <logic+0x504>
  800790:	0005883a 	mov	r2,zero
  800794:	1007883a 	mov	r3,r2
  800798:	e0bffd17 	ldw	r2,-12(fp)
  80079c:	10c02985 	stb	r3,166(r2)
  d->sleepT = 1000.0;
  8007a0:	e0fffd17 	ldw	r3,-12(fp)
  8007a4:	18000615 	stw	zero,24(r3)
  8007a8:	009023f4 	movhi	r2,16527
  8007ac:	10900004 	addi	r2,r2,16384
  8007b0:	18800715 	stw	r2,28(r3)
  d->_g56 = d->_g50 || d->_g56;
  8007b4:	e0bffd17 	ldw	r2,-12(fp)
  8007b8:	10801203 	ldbu	r2,72(r2)
  8007bc:	10803fcc 	andi	r2,r2,255
  8007c0:	1080201c 	xori	r2,r2,128
  8007c4:	10bfe004 	addi	r2,r2,-128
  8007c8:	1000061e 	bne	r2,zero,8007e4 <logic+0x554>
  8007cc:	e0bffd17 	ldw	r2,-12(fp)
  8007d0:	10801343 	ldbu	r2,77(r2)
  8007d4:	10803fcc 	andi	r2,r2,255
  8007d8:	1080201c 	xori	r2,r2,128
  8007dc:	10bfe004 	addi	r2,r2,-128
  8007e0:	10000226 	beq	r2,zero,8007ec <logic+0x55c>
  8007e4:	00800044 	movi	r2,1
  8007e8:	00000106 	br	8007f0 <logic+0x560>
  8007ec:	0005883a 	mov	r2,zero
  8007f0:	1007883a 	mov	r3,r2
  8007f4:	e0bffd17 	ldw	r2,-12(fp)
  8007f8:	10c01345 	stb	r3,77(r2)
  d->_cg51 = d->_region0_Atrium_VentricleTimer < VRP_VALUE;
  8007fc:	e13ffd17 	ldw	r4,-12(fp)
  800800:	20800017 	ldw	r2,0(r4)
  800804:	20c00117 	ldw	r3,4(r4)
  800808:	04000044 	movi	r16,1
  80080c:	000d883a 	mov	r6,zero
  800810:	01d018f4 	movhi	r7,16483
  800814:	39f00004 	addi	r7,r7,-16384
  800818:	1009883a 	mov	r4,r2
  80081c:	180b883a 	mov	r5,r3
  800820:	08053100 	call	805310 <__ledf2>
  800824:	10000116 	blt	r2,zero,80082c <logic+0x59c>
  800828:	0021883a 	mov	r16,zero
  80082c:	8007883a 	mov	r3,r16
  800830:	e0bffd17 	ldw	r2,-12(fp)
  800834:	10c02105 	stb	r3,132(r2)
  d->_g50 = d->_g56 && d->_cg51;
  800838:	e0bffd17 	ldw	r2,-12(fp)
  80083c:	10801343 	ldbu	r2,77(r2)
  800840:	10803fcc 	andi	r2,r2,255
  800844:	1080201c 	xori	r2,r2,128
  800848:	10bfe004 	addi	r2,r2,-128
  80084c:	10000826 	beq	r2,zero,800870 <logic+0x5e0>
  800850:	e0bffd17 	ldw	r2,-12(fp)
  800854:	10802103 	ldbu	r2,132(r2)
  800858:	10803fcc 	andi	r2,r2,255
  80085c:	1080201c 	xori	r2,r2,128
  800860:	10bfe004 	addi	r2,r2,-128
  800864:	10000226 	beq	r2,zero,800870 <logic+0x5e0>
  800868:	00800044 	movi	r2,1
  80086c:	00000106 	br	800874 <logic+0x5e4>
  800870:	0005883a 	mov	r2,zero
  800874:	1007883a 	mov	r3,r2
  800878:	e0bffd17 	ldw	r2,-12(fp)
  80087c:	10c01205 	stb	r3,72(r2)
  if (d->_g50) {
  800880:	e0bffd17 	ldw	r2,-12(fp)
  800884:	10801203 	ldbu	r2,72(r2)
  800888:	10803fcc 	andi	r2,r2,255
  80088c:	1080201c 	xori	r2,r2,128
  800890:	10bfe004 	addi	r2,r2,-128
  800894:	10002a26 	beq	r2,zero,800940 <logic+0x6b0>
    d->sleepT = (d->sleepT < (VRP_VALUE - d->_region0_Atrium_VentricleTimer)) ? d->sleepT : (VRP_VALUE - d->_region0_Atrium_VentricleTimer);
  800898:	e0bffd17 	ldw	r2,-12(fp)
  80089c:	14000617 	ldw	r16,24(r2)
  8008a0:	14400717 	ldw	r17,28(r2)
  8008a4:	e13ffd17 	ldw	r4,-12(fp)
  8008a8:	20800017 	ldw	r2,0(r4)
  8008ac:	20c00117 	ldw	r3,4(r4)
  8008b0:	100d883a 	mov	r6,r2
  8008b4:	180f883a 	mov	r7,r3
  8008b8:	0009883a 	mov	r4,zero
  8008bc:	015018f4 	movhi	r5,16483
  8008c0:	29700004 	addi	r5,r5,-16384
  8008c4:	0805b1c0 	call	805b1c <__subdf3>
  8008c8:	1009883a 	mov	r4,r2
  8008cc:	180b883a 	mov	r5,r3
  8008d0:	2005883a 	mov	r2,r4
  8008d4:	2807883a 	mov	r3,r5
  8008d8:	100d883a 	mov	r6,r2
  8008dc:	180f883a 	mov	r7,r3
  8008e0:	8009883a 	mov	r4,r16
  8008e4:	880b883a 	mov	r5,r17
  8008e8:	08053100 	call	805310 <__ledf2>
  8008ec:	1000040e 	bge	r2,zero,800900 <logic+0x670>
  8008f0:	e13ffd17 	ldw	r4,-12(fp)
  8008f4:	20800617 	ldw	r2,24(r4)
  8008f8:	20c00717 	ldw	r3,28(r4)
  8008fc:	00000d06 	br	800934 <logic+0x6a4>
  800900:	e13ffd17 	ldw	r4,-12(fp)
  800904:	20800017 	ldw	r2,0(r4)
  800908:	20c00117 	ldw	r3,4(r4)
  80090c:	100d883a 	mov	r6,r2
  800910:	180f883a 	mov	r7,r3
  800914:	0009883a 	mov	r4,zero
  800918:	015018f4 	movhi	r5,16483
  80091c:	29700004 	addi	r5,r5,-16384
  800920:	0805b1c0 	call	805b1c <__subdf3>
  800924:	1009883a 	mov	r4,r2
  800928:	180b883a 	mov	r5,r3
  80092c:	2005883a 	mov	r2,r4
  800930:	2807883a 	mov	r3,r5
  800934:	e13ffd17 	ldw	r4,-12(fp)
  800938:	20800615 	stw	r2,24(r4)
  80093c:	20c00715 	stw	r3,28(r4)
  }
  d->_cg52 = d->_Pacemaker_local__Atrig2 || d->_Pacemaker_local__Atrig3 || d->_Pacemaker_local__Atrig4;
  800940:	e0bffd17 	ldw	r2,-12(fp)
  800944:	10800983 	ldbu	r2,38(r2)
  800948:	10803fcc 	andi	r2,r2,255
  80094c:	1080201c 	xori	r2,r2,128
  800950:	10bfe004 	addi	r2,r2,-128
  800954:	10000c1e 	bne	r2,zero,800988 <logic+0x6f8>
  800958:	e0bffd17 	ldw	r2,-12(fp)
  80095c:	108009c3 	ldbu	r2,39(r2)
  800960:	10803fcc 	andi	r2,r2,255
  800964:	1080201c 	xori	r2,r2,128
  800968:	10bfe004 	addi	r2,r2,-128
  80096c:	1000061e 	bne	r2,zero,800988 <logic+0x6f8>
  800970:	e0bffd17 	ldw	r2,-12(fp)
  800974:	10800a03 	ldbu	r2,40(r2)
  800978:	10803fcc 	andi	r2,r2,255
  80097c:	1080201c 	xori	r2,r2,128
  800980:	10bfe004 	addi	r2,r2,-128
  800984:	10000226 	beq	r2,zero,800990 <logic+0x700>
  800988:	00800044 	movi	r2,1
  80098c:	00000106 	br	800994 <logic+0x704>
  800990:	0005883a 	mov	r2,zero
  800994:	1007883a 	mov	r3,r2
  800998:	e0bffd17 	ldw	r2,-12(fp)
  80099c:	10c020c5 	stb	r3,131(r2)
  d->_g51 = d->_g56 && !d->_cg51;
  8009a0:	e0bffd17 	ldw	r2,-12(fp)
  8009a4:	10801343 	ldbu	r2,77(r2)
  8009a8:	10803fcc 	andi	r2,r2,255
  8009ac:	1080201c 	xori	r2,r2,128
  8009b0:	10bfe004 	addi	r2,r2,-128
  8009b4:	10000826 	beq	r2,zero,8009d8 <logic+0x748>
  8009b8:	e0bffd17 	ldw	r2,-12(fp)
  8009bc:	10802103 	ldbu	r2,132(r2)
  8009c0:	10803fcc 	andi	r2,r2,255
  8009c4:	1080201c 	xori	r2,r2,128
  8009c8:	10bfe004 	addi	r2,r2,-128
  8009cc:	1000021e 	bne	r2,zero,8009d8 <logic+0x748>
  8009d0:	00800044 	movi	r2,1
  8009d4:	00000106 	br	8009dc <logic+0x74c>
  8009d8:	0005883a 	mov	r2,zero
  8009dc:	1007883a 	mov	r3,r2
  8009e0:	e0bffd17 	ldw	r2,-12(fp)
  8009e4:	10c01245 	stb	r3,73(r2)
  d->_cg54 = d->_Pacemaker_local__Atrig2 || d->_Pacemaker_local__Atrig3 || d->_Pacemaker_local__Atrig4;
  8009e8:	e0bffd17 	ldw	r2,-12(fp)
  8009ec:	10800983 	ldbu	r2,38(r2)
  8009f0:	10803fcc 	andi	r2,r2,255
  8009f4:	1080201c 	xori	r2,r2,128
  8009f8:	10bfe004 	addi	r2,r2,-128
  8009fc:	10000c1e 	bne	r2,zero,800a30 <logic+0x7a0>
  800a00:	e0bffd17 	ldw	r2,-12(fp)
  800a04:	108009c3 	ldbu	r2,39(r2)
  800a08:	10803fcc 	andi	r2,r2,255
  800a0c:	1080201c 	xori	r2,r2,128
  800a10:	10bfe004 	addi	r2,r2,-128
  800a14:	1000061e 	bne	r2,zero,800a30 <logic+0x7a0>
  800a18:	e0bffd17 	ldw	r2,-12(fp)
  800a1c:	10800a03 	ldbu	r2,40(r2)
  800a20:	10803fcc 	andi	r2,r2,255
  800a24:	1080201c 	xori	r2,r2,128
  800a28:	10bfe004 	addi	r2,r2,-128
  800a2c:	10000226 	beq	r2,zero,800a38 <logic+0x7a8>
  800a30:	00800044 	movi	r2,1
  800a34:	00000106 	br	800a3c <logic+0x7ac>
  800a38:	0005883a 	mov	r2,zero
  800a3c:	1007883a 	mov	r3,r2
  800a40:	e0bffd17 	ldw	r2,-12(fp)
  800a44:	10c02145 	stb	r3,133(r2)
  d->_g53 = d->_g50 && d->_cg52 || d->_g51 && d->_cg54;
  800a48:	e0bffd17 	ldw	r2,-12(fp)
  800a4c:	10801203 	ldbu	r2,72(r2)
  800a50:	10803fcc 	andi	r2,r2,255
  800a54:	1080201c 	xori	r2,r2,128
  800a58:	10bfe004 	addi	r2,r2,-128
  800a5c:	10000626 	beq	r2,zero,800a78 <logic+0x7e8>
  800a60:	e0bffd17 	ldw	r2,-12(fp)
  800a64:	108020c3 	ldbu	r2,131(r2)
  800a68:	10803fcc 	andi	r2,r2,255
  800a6c:	1080201c 	xori	r2,r2,128
  800a70:	10bfe004 	addi	r2,r2,-128
  800a74:	10000c1e 	bne	r2,zero,800aa8 <logic+0x818>
  800a78:	e0bffd17 	ldw	r2,-12(fp)
  800a7c:	10801243 	ldbu	r2,73(r2)
  800a80:	10803fcc 	andi	r2,r2,255
  800a84:	1080201c 	xori	r2,r2,128
  800a88:	10bfe004 	addi	r2,r2,-128
  800a8c:	10000826 	beq	r2,zero,800ab0 <logic+0x820>
  800a90:	e0bffd17 	ldw	r2,-12(fp)
  800a94:	10802143 	ldbu	r2,133(r2)
  800a98:	10803fcc 	andi	r2,r2,255
  800a9c:	1080201c 	xori	r2,r2,128
  800aa0:	10bfe004 	addi	r2,r2,-128
  800aa4:	10000226 	beq	r2,zero,800ab0 <logic+0x820>
  800aa8:	00800044 	movi	r2,1
  800aac:	00000106 	br	800ab4 <logic+0x824>
  800ab0:	0005883a 	mov	r2,zero
  800ab4:	1007883a 	mov	r3,r2
  800ab8:	e0bffd17 	ldw	r2,-12(fp)
  800abc:	10c012c5 	stb	r3,75(r2)
  d->_g67 = d->_pg38_e5;
  800ac0:	e0bffd17 	ldw	r2,-12(fp)
  800ac4:	10c02c83 	ldbu	r3,178(r2)
  800ac8:	e0bffd17 	ldw	r2,-12(fp)
  800acc:	10c014c5 	stb	r3,83(r2)
  d->_g61 = d->_pg7;
  800ad0:	e0bffd17 	ldw	r2,-12(fp)
  800ad4:	10c02cc3 	ldbu	r3,179(r2)
  800ad8:	e0bffd17 	ldw	r2,-12(fp)
  800adc:	10c01405 	stb	r3,80(r2)
  d->_g64_e3 = !(d->_g67 || d->_g61);
  800ae0:	e0bffd17 	ldw	r2,-12(fp)
  800ae4:	108014c3 	ldbu	r2,83(r2)
  800ae8:	10803fcc 	andi	r2,r2,255
  800aec:	1080201c 	xori	r2,r2,128
  800af0:	10bfe004 	addi	r2,r2,-128
  800af4:	1000081e 	bne	r2,zero,800b18 <logic+0x888>
  800af8:	e0bffd17 	ldw	r2,-12(fp)
  800afc:	10801403 	ldbu	r2,80(r2)
  800b00:	10803fcc 	andi	r2,r2,255
  800b04:	1080201c 	xori	r2,r2,128
  800b08:	10bfe004 	addi	r2,r2,-128
  800b0c:	1000021e 	bne	r2,zero,800b18 <logic+0x888>
  800b10:	00800044 	movi	r2,1
  800b14:	00000106 	br	800b1c <logic+0x88c>
  800b18:	0005883a 	mov	r2,zero
  800b1c:	1007883a 	mov	r3,r2
  800b20:	e0bffd17 	ldw	r2,-12(fp)
  800b24:	10c029c5 	stb	r3,167(r2)
  d->_g67 = d->_g61 || d->_g67;
  800b28:	e0bffd17 	ldw	r2,-12(fp)
  800b2c:	10801403 	ldbu	r2,80(r2)
  800b30:	10803fcc 	andi	r2,r2,255
  800b34:	1080201c 	xori	r2,r2,128
  800b38:	10bfe004 	addi	r2,r2,-128
  800b3c:	1000061e 	bne	r2,zero,800b58 <logic+0x8c8>
  800b40:	e0bffd17 	ldw	r2,-12(fp)
  800b44:	108014c3 	ldbu	r2,83(r2)
  800b48:	10803fcc 	andi	r2,r2,255
  800b4c:	1080201c 	xori	r2,r2,128
  800b50:	10bfe004 	addi	r2,r2,-128
  800b54:	10000226 	beq	r2,zero,800b60 <logic+0x8d0>
  800b58:	00800044 	movi	r2,1
  800b5c:	00000106 	br	800b64 <logic+0x8d4>
  800b60:	0005883a 	mov	r2,zero
  800b64:	1007883a 	mov	r3,r2
  800b68:	e0bffd17 	ldw	r2,-12(fp)
  800b6c:	10c014c5 	stb	r3,83(r2)
  d->_cg62 = d->_region0_Atrium_VentricleTimer < URI_VALUE;
  800b70:	e13ffd17 	ldw	r4,-12(fp)
  800b74:	20800017 	ldw	r2,0(r4)
  800b78:	20c00117 	ldw	r3,4(r4)
  800b7c:	04000044 	movi	r16,1
  800b80:	000d883a 	mov	r6,zero
  800b84:	01d02334 	movhi	r7,16524
  800b88:	39c80004 	addi	r7,r7,8192
  800b8c:	1009883a 	mov	r4,r2
  800b90:	180b883a 	mov	r5,r3
  800b94:	08053100 	call	805310 <__ledf2>
  800b98:	10000116 	blt	r2,zero,800ba0 <logic+0x910>
  800b9c:	0021883a 	mov	r16,zero
  800ba0:	8007883a 	mov	r3,r16
  800ba4:	e0bffd17 	ldw	r2,-12(fp)
  800ba8:	10c02285 	stb	r3,138(r2)
  d->_g61 = d->_g67 && d->_cg62;
  800bac:	e0bffd17 	ldw	r2,-12(fp)
  800bb0:	108014c3 	ldbu	r2,83(r2)
  800bb4:	10803fcc 	andi	r2,r2,255
  800bb8:	1080201c 	xori	r2,r2,128
  800bbc:	10bfe004 	addi	r2,r2,-128
  800bc0:	10000826 	beq	r2,zero,800be4 <logic+0x954>
  800bc4:	e0bffd17 	ldw	r2,-12(fp)
  800bc8:	10802283 	ldbu	r2,138(r2)
  800bcc:	10803fcc 	andi	r2,r2,255
  800bd0:	1080201c 	xori	r2,r2,128
  800bd4:	10bfe004 	addi	r2,r2,-128
  800bd8:	10000226 	beq	r2,zero,800be4 <logic+0x954>
  800bdc:	00800044 	movi	r2,1
  800be0:	00000106 	br	800be8 <logic+0x958>
  800be4:	0005883a 	mov	r2,zero
  800be8:	1007883a 	mov	r3,r2
  800bec:	e0bffd17 	ldw	r2,-12(fp)
  800bf0:	10c01405 	stb	r3,80(r2)
  if (d->_g61) {
  800bf4:	e0bffd17 	ldw	r2,-12(fp)
  800bf8:	10801403 	ldbu	r2,80(r2)
  800bfc:	10803fcc 	andi	r2,r2,255
  800c00:	1080201c 	xori	r2,r2,128
  800c04:	10bfe004 	addi	r2,r2,-128
  800c08:	10002a26 	beq	r2,zero,800cb4 <logic+0xa24>
    d->sleepT = (d->sleepT < (URI_VALUE - d->_region0_Atrium_VentricleTimer)) ? d->sleepT : (URI_VALUE - d->_region0_Atrium_VentricleTimer);
  800c0c:	e0bffd17 	ldw	r2,-12(fp)
  800c10:	14000617 	ldw	r16,24(r2)
  800c14:	14400717 	ldw	r17,28(r2)
  800c18:	e13ffd17 	ldw	r4,-12(fp)
  800c1c:	20800017 	ldw	r2,0(r4)
  800c20:	20c00117 	ldw	r3,4(r4)
  800c24:	100d883a 	mov	r6,r2
  800c28:	180f883a 	mov	r7,r3
  800c2c:	0009883a 	mov	r4,zero
  800c30:	01502334 	movhi	r5,16524
  800c34:	29480004 	addi	r5,r5,8192
  800c38:	0805b1c0 	call	805b1c <__subdf3>
  800c3c:	1009883a 	mov	r4,r2
  800c40:	180b883a 	mov	r5,r3
  800c44:	2005883a 	mov	r2,r4
  800c48:	2807883a 	mov	r3,r5
  800c4c:	100d883a 	mov	r6,r2
  800c50:	180f883a 	mov	r7,r3
  800c54:	8009883a 	mov	r4,r16
  800c58:	880b883a 	mov	r5,r17
  800c5c:	08053100 	call	805310 <__ledf2>
  800c60:	1000040e 	bge	r2,zero,800c74 <logic+0x9e4>
  800c64:	e13ffd17 	ldw	r4,-12(fp)
  800c68:	20800617 	ldw	r2,24(r4)
  800c6c:	20c00717 	ldw	r3,28(r4)
  800c70:	00000d06 	br	800ca8 <logic+0xa18>
  800c74:	e13ffd17 	ldw	r4,-12(fp)
  800c78:	20800017 	ldw	r2,0(r4)
  800c7c:	20c00117 	ldw	r3,4(r4)
  800c80:	100d883a 	mov	r6,r2
  800c84:	180f883a 	mov	r7,r3
  800c88:	0009883a 	mov	r4,zero
  800c8c:	01502334 	movhi	r5,16524
  800c90:	29480004 	addi	r5,r5,8192
  800c94:	0805b1c0 	call	805b1c <__subdf3>
  800c98:	1009883a 	mov	r4,r2
  800c9c:	180b883a 	mov	r5,r3
  800ca0:	2005883a 	mov	r2,r4
  800ca4:	2807883a 	mov	r3,r5
  800ca8:	e13ffd17 	ldw	r4,-12(fp)
  800cac:	20800615 	stw	r2,24(r4)
  800cb0:	20c00715 	stw	r3,28(r4)
  }
  d->_cg63 = d->_Pacemaker_local__Atrig2 || d->_Pacemaker_local__Atrig3 || d->_Pacemaker_local__Atrig4;
  800cb4:	e0bffd17 	ldw	r2,-12(fp)
  800cb8:	10800983 	ldbu	r2,38(r2)
  800cbc:	10803fcc 	andi	r2,r2,255
  800cc0:	1080201c 	xori	r2,r2,128
  800cc4:	10bfe004 	addi	r2,r2,-128
  800cc8:	10000c1e 	bne	r2,zero,800cfc <logic+0xa6c>
  800ccc:	e0bffd17 	ldw	r2,-12(fp)
  800cd0:	108009c3 	ldbu	r2,39(r2)
  800cd4:	10803fcc 	andi	r2,r2,255
  800cd8:	1080201c 	xori	r2,r2,128
  800cdc:	10bfe004 	addi	r2,r2,-128
  800ce0:	1000061e 	bne	r2,zero,800cfc <logic+0xa6c>
  800ce4:	e0bffd17 	ldw	r2,-12(fp)
  800ce8:	10800a03 	ldbu	r2,40(r2)
  800cec:	10803fcc 	andi	r2,r2,255
  800cf0:	1080201c 	xori	r2,r2,128
  800cf4:	10bfe004 	addi	r2,r2,-128
  800cf8:	10000226 	beq	r2,zero,800d04 <logic+0xa74>
  800cfc:	00800044 	movi	r2,1
  800d00:	00000106 	br	800d08 <logic+0xa78>
  800d04:	0005883a 	mov	r2,zero
  800d08:	1007883a 	mov	r3,r2
  800d0c:	e0bffd17 	ldw	r2,-12(fp)
  800d10:	10c02245 	stb	r3,137(r2)
  d->_g62 = d->_g67 && !d->_cg62;
  800d14:	e0bffd17 	ldw	r2,-12(fp)
  800d18:	108014c3 	ldbu	r2,83(r2)
  800d1c:	10803fcc 	andi	r2,r2,255
  800d20:	1080201c 	xori	r2,r2,128
  800d24:	10bfe004 	addi	r2,r2,-128
  800d28:	10000826 	beq	r2,zero,800d4c <logic+0xabc>
  800d2c:	e0bffd17 	ldw	r2,-12(fp)
  800d30:	10802283 	ldbu	r2,138(r2)
  800d34:	10803fcc 	andi	r2,r2,255
  800d38:	1080201c 	xori	r2,r2,128
  800d3c:	10bfe004 	addi	r2,r2,-128
  800d40:	1000021e 	bne	r2,zero,800d4c <logic+0xabc>
  800d44:	00800044 	movi	r2,1
  800d48:	00000106 	br	800d50 <logic+0xac0>
  800d4c:	0005883a 	mov	r2,zero
  800d50:	1007883a 	mov	r3,r2
  800d54:	e0bffd17 	ldw	r2,-12(fp)
  800d58:	10c01445 	stb	r3,81(r2)
  d->_cg65 = d->_Pacemaker_local__Atrig2 || d->_Pacemaker_local__Atrig3 || d->_Pacemaker_local__Atrig4;
  800d5c:	e0bffd17 	ldw	r2,-12(fp)
  800d60:	10800983 	ldbu	r2,38(r2)
  800d64:	10803fcc 	andi	r2,r2,255
  800d68:	1080201c 	xori	r2,r2,128
  800d6c:	10bfe004 	addi	r2,r2,-128
  800d70:	10000c1e 	bne	r2,zero,800da4 <logic+0xb14>
  800d74:	e0bffd17 	ldw	r2,-12(fp)
  800d78:	108009c3 	ldbu	r2,39(r2)
  800d7c:	10803fcc 	andi	r2,r2,255
  800d80:	1080201c 	xori	r2,r2,128
  800d84:	10bfe004 	addi	r2,r2,-128
  800d88:	1000061e 	bne	r2,zero,800da4 <logic+0xb14>
  800d8c:	e0bffd17 	ldw	r2,-12(fp)
  800d90:	10800a03 	ldbu	r2,40(r2)
  800d94:	10803fcc 	andi	r2,r2,255
  800d98:	1080201c 	xori	r2,r2,128
  800d9c:	10bfe004 	addi	r2,r2,-128
  800da0:	10000226 	beq	r2,zero,800dac <logic+0xb1c>
  800da4:	00800044 	movi	r2,1
  800da8:	00000106 	br	800db0 <logic+0xb20>
  800dac:	0005883a 	mov	r2,zero
  800db0:	1007883a 	mov	r3,r2
  800db4:	e0bffd17 	ldw	r2,-12(fp)
  800db8:	10c022c5 	stb	r3,139(r2)
  d->_g64 = d->_g61 && d->_cg63 || d->_g62 && d->_cg65;
  800dbc:	e0bffd17 	ldw	r2,-12(fp)
  800dc0:	10801403 	ldbu	r2,80(r2)
  800dc4:	10803fcc 	andi	r2,r2,255
  800dc8:	1080201c 	xori	r2,r2,128
  800dcc:	10bfe004 	addi	r2,r2,-128
  800dd0:	10000626 	beq	r2,zero,800dec <logic+0xb5c>
  800dd4:	e0bffd17 	ldw	r2,-12(fp)
  800dd8:	10802243 	ldbu	r2,137(r2)
  800ddc:	10803fcc 	andi	r2,r2,255
  800de0:	1080201c 	xori	r2,r2,128
  800de4:	10bfe004 	addi	r2,r2,-128
  800de8:	10000c1e 	bne	r2,zero,800e1c <logic+0xb8c>
  800dec:	e0bffd17 	ldw	r2,-12(fp)
  800df0:	10801443 	ldbu	r2,81(r2)
  800df4:	10803fcc 	andi	r2,r2,255
  800df8:	1080201c 	xori	r2,r2,128
  800dfc:	10bfe004 	addi	r2,r2,-128
  800e00:	10000826 	beq	r2,zero,800e24 <logic+0xb94>
  800e04:	e0bffd17 	ldw	r2,-12(fp)
  800e08:	108022c3 	ldbu	r2,139(r2)
  800e0c:	10803fcc 	andi	r2,r2,255
  800e10:	1080201c 	xori	r2,r2,128
  800e14:	10bfe004 	addi	r2,r2,-128
  800e18:	10000226 	beq	r2,zero,800e24 <logic+0xb94>
  800e1c:	00800044 	movi	r2,1
  800e20:	00000106 	br	800e28 <logic+0xb98>
  800e24:	0005883a 	mov	r2,zero
  800e28:	1007883a 	mov	r3,r2
  800e2c:	e0bffd17 	ldw	r2,-12(fp)
  800e30:	10c01485 	stb	r3,82(r2)
  d->_g78 = d->_pg41;
  800e34:	e0bffd17 	ldw	r2,-12(fp)
  800e38:	10c02d03 	ldbu	r3,180(r2)
  800e3c:	e0bffd17 	ldw	r2,-12(fp)
  800e40:	10c015c5 	stb	r3,87(r2)
  d->_g72 = d->_pg14_e2;
  800e44:	e0bffd17 	ldw	r2,-12(fp)
  800e48:	10c02d43 	ldbu	r3,181(r2)
  800e4c:	e0bffd17 	ldw	r2,-12(fp)
  800e50:	10c01505 	stb	r3,84(r2)
  d->_g75_e4 = !(d->_g78 || d->_g72);
  800e54:	e0bffd17 	ldw	r2,-12(fp)
  800e58:	108015c3 	ldbu	r2,87(r2)
  800e5c:	10803fcc 	andi	r2,r2,255
  800e60:	1080201c 	xori	r2,r2,128
  800e64:	10bfe004 	addi	r2,r2,-128
  800e68:	1000081e 	bne	r2,zero,800e8c <logic+0xbfc>
  800e6c:	e0bffd17 	ldw	r2,-12(fp)
  800e70:	10801503 	ldbu	r2,84(r2)
  800e74:	10803fcc 	andi	r2,r2,255
  800e78:	1080201c 	xori	r2,r2,128
  800e7c:	10bfe004 	addi	r2,r2,-128
  800e80:	1000021e 	bne	r2,zero,800e8c <logic+0xbfc>
  800e84:	00800044 	movi	r2,1
  800e88:	00000106 	br	800e90 <logic+0xc00>
  800e8c:	0005883a 	mov	r2,zero
  800e90:	1007883a 	mov	r3,r2
  800e94:	e0bffd17 	ldw	r2,-12(fp)
  800e98:	10c02a05 	stb	r3,168(r2)
  d->_g78 = d->_g72 || d->_g78;
  800e9c:	e0bffd17 	ldw	r2,-12(fp)
  800ea0:	10801503 	ldbu	r2,84(r2)
  800ea4:	10803fcc 	andi	r2,r2,255
  800ea8:	1080201c 	xori	r2,r2,128
  800eac:	10bfe004 	addi	r2,r2,-128
  800eb0:	1000061e 	bne	r2,zero,800ecc <logic+0xc3c>
  800eb4:	e0bffd17 	ldw	r2,-12(fp)
  800eb8:	108015c3 	ldbu	r2,87(r2)
  800ebc:	10803fcc 	andi	r2,r2,255
  800ec0:	1080201c 	xori	r2,r2,128
  800ec4:	10bfe004 	addi	r2,r2,-128
  800ec8:	10000226 	beq	r2,zero,800ed4 <logic+0xc44>
  800ecc:	00800044 	movi	r2,1
  800ed0:	00000106 	br	800ed8 <logic+0xc48>
  800ed4:	0005883a 	mov	r2,zero
  800ed8:	1007883a 	mov	r3,r2
  800edc:	e0bffd17 	ldw	r2,-12(fp)
  800ee0:	10c015c5 	stb	r3,87(r2)
  d->_cg73 = d->_region0_Atrium_VentricleTimer < LRI_VALUE;
  800ee4:	e13ffd17 	ldw	r4,-12(fp)
  800ee8:	20800017 	ldw	r2,0(r4)
  800eec:	20c00117 	ldw	r3,4(r4)
  800ef0:	04000044 	movi	r16,1
  800ef4:	000d883a 	mov	r6,zero
  800ef8:	01d023b4 	movhi	r7,16526
  800efc:	39ec0004 	addi	r7,r7,-20480
  800f00:	1009883a 	mov	r4,r2
  800f04:	180b883a 	mov	r5,r3
  800f08:	08053100 	call	805310 <__ledf2>
  800f0c:	10000116 	blt	r2,zero,800f14 <logic+0xc84>
  800f10:	0021883a 	mov	r16,zero
  800f14:	8007883a 	mov	r3,r16
  800f18:	e0bffd17 	ldw	r2,-12(fp)
  800f1c:	10c02405 	stb	r3,144(r2)
  d->_g72 = d->_g78 && d->_cg73;
  800f20:	e0bffd17 	ldw	r2,-12(fp)
  800f24:	108015c3 	ldbu	r2,87(r2)
  800f28:	10803fcc 	andi	r2,r2,255
  800f2c:	1080201c 	xori	r2,r2,128
  800f30:	10bfe004 	addi	r2,r2,-128
  800f34:	10000826 	beq	r2,zero,800f58 <logic+0xcc8>
  800f38:	e0bffd17 	ldw	r2,-12(fp)
  800f3c:	10802403 	ldbu	r2,144(r2)
  800f40:	10803fcc 	andi	r2,r2,255
  800f44:	1080201c 	xori	r2,r2,128
  800f48:	10bfe004 	addi	r2,r2,-128
  800f4c:	10000226 	beq	r2,zero,800f58 <logic+0xcc8>
  800f50:	00800044 	movi	r2,1
  800f54:	00000106 	br	800f5c <logic+0xccc>
  800f58:	0005883a 	mov	r2,zero
  800f5c:	1007883a 	mov	r3,r2
  800f60:	e0bffd17 	ldw	r2,-12(fp)
  800f64:	10c01505 	stb	r3,84(r2)
  if (d->_g72) {
  800f68:	e0bffd17 	ldw	r2,-12(fp)
  800f6c:	10801503 	ldbu	r2,84(r2)
  800f70:	10803fcc 	andi	r2,r2,255
  800f74:	1080201c 	xori	r2,r2,128
  800f78:	10bfe004 	addi	r2,r2,-128
  800f7c:	10002a26 	beq	r2,zero,801028 <logic+0xd98>
    d->sleepT = (d->sleepT < (LRI_VALUE - d->_region0_Atrium_VentricleTimer)) ? d->sleepT : (LRI_VALUE - d->_region0_Atrium_VentricleTimer);
  800f80:	e0bffd17 	ldw	r2,-12(fp)
  800f84:	14000617 	ldw	r16,24(r2)
  800f88:	14400717 	ldw	r17,28(r2)
  800f8c:	e13ffd17 	ldw	r4,-12(fp)
  800f90:	20800017 	ldw	r2,0(r4)
  800f94:	20c00117 	ldw	r3,4(r4)
  800f98:	100d883a 	mov	r6,r2
  800f9c:	180f883a 	mov	r7,r3
  800fa0:	0009883a 	mov	r4,zero
  800fa4:	015023b4 	movhi	r5,16526
  800fa8:	296c0004 	addi	r5,r5,-20480
  800fac:	0805b1c0 	call	805b1c <__subdf3>
  800fb0:	1009883a 	mov	r4,r2
  800fb4:	180b883a 	mov	r5,r3
  800fb8:	2005883a 	mov	r2,r4
  800fbc:	2807883a 	mov	r3,r5
  800fc0:	100d883a 	mov	r6,r2
  800fc4:	180f883a 	mov	r7,r3
  800fc8:	8009883a 	mov	r4,r16
  800fcc:	880b883a 	mov	r5,r17
  800fd0:	08053100 	call	805310 <__ledf2>
  800fd4:	1000040e 	bge	r2,zero,800fe8 <logic+0xd58>
  800fd8:	e13ffd17 	ldw	r4,-12(fp)
  800fdc:	20800617 	ldw	r2,24(r4)
  800fe0:	20c00717 	ldw	r3,28(r4)
  800fe4:	00000d06 	br	80101c <logic+0xd8c>
  800fe8:	e13ffd17 	ldw	r4,-12(fp)
  800fec:	20800017 	ldw	r2,0(r4)
  800ff0:	20c00117 	ldw	r3,4(r4)
  800ff4:	100d883a 	mov	r6,r2
  800ff8:	180f883a 	mov	r7,r3
  800ffc:	0009883a 	mov	r4,zero
  801000:	015023b4 	movhi	r5,16526
  801004:	296c0004 	addi	r5,r5,-20480
  801008:	0805b1c0 	call	805b1c <__subdf3>
  80100c:	1009883a 	mov	r4,r2
  801010:	180b883a 	mov	r5,r3
  801014:	2005883a 	mov	r2,r4
  801018:	2807883a 	mov	r3,r5
  80101c:	e13ffd17 	ldw	r4,-12(fp)
  801020:	20800615 	stw	r2,24(r4)
  801024:	20c00715 	stw	r3,28(r4)
  }
  d->_cg74 = d->_Pacemaker_local__Atrig2 || d->_Pacemaker_local__Atrig3 || d->_Pacemaker_local__Atrig4;
  801028:	e0bffd17 	ldw	r2,-12(fp)
  80102c:	10800983 	ldbu	r2,38(r2)
  801030:	10803fcc 	andi	r2,r2,255
  801034:	1080201c 	xori	r2,r2,128
  801038:	10bfe004 	addi	r2,r2,-128
  80103c:	10000c1e 	bne	r2,zero,801070 <logic+0xde0>
  801040:	e0bffd17 	ldw	r2,-12(fp)
  801044:	108009c3 	ldbu	r2,39(r2)
  801048:	10803fcc 	andi	r2,r2,255
  80104c:	1080201c 	xori	r2,r2,128
  801050:	10bfe004 	addi	r2,r2,-128
  801054:	1000061e 	bne	r2,zero,801070 <logic+0xde0>
  801058:	e0bffd17 	ldw	r2,-12(fp)
  80105c:	10800a03 	ldbu	r2,40(r2)
  801060:	10803fcc 	andi	r2,r2,255
  801064:	1080201c 	xori	r2,r2,128
  801068:	10bfe004 	addi	r2,r2,-128
  80106c:	10000226 	beq	r2,zero,801078 <logic+0xde8>
  801070:	00800044 	movi	r2,1
  801074:	00000106 	br	80107c <logic+0xdec>
  801078:	0005883a 	mov	r2,zero
  80107c:	1007883a 	mov	r3,r2
  801080:	e0bffd17 	ldw	r2,-12(fp)
  801084:	10c023c5 	stb	r3,143(r2)
  d->_g73 = d->_g78 && !d->_cg73;
  801088:	e0bffd17 	ldw	r2,-12(fp)
  80108c:	108015c3 	ldbu	r2,87(r2)
  801090:	10803fcc 	andi	r2,r2,255
  801094:	1080201c 	xori	r2,r2,128
  801098:	10bfe004 	addi	r2,r2,-128
  80109c:	10000826 	beq	r2,zero,8010c0 <logic+0xe30>
  8010a0:	e0bffd17 	ldw	r2,-12(fp)
  8010a4:	10802403 	ldbu	r2,144(r2)
  8010a8:	10803fcc 	andi	r2,r2,255
  8010ac:	1080201c 	xori	r2,r2,128
  8010b0:	10bfe004 	addi	r2,r2,-128
  8010b4:	1000021e 	bne	r2,zero,8010c0 <logic+0xe30>
  8010b8:	00800044 	movi	r2,1
  8010bc:	00000106 	br	8010c4 <logic+0xe34>
  8010c0:	0005883a 	mov	r2,zero
  8010c4:	1007883a 	mov	r3,r2
  8010c8:	e0bffd17 	ldw	r2,-12(fp)
  8010cc:	10c01545 	stb	r3,85(r2)
  d->_cg76 = d->_Pacemaker_local__Atrig2 || d->_Pacemaker_local__Atrig3 || d->_Pacemaker_local__Atrig4;
  8010d0:	e0bffd17 	ldw	r2,-12(fp)
  8010d4:	10800983 	ldbu	r2,38(r2)
  8010d8:	10803fcc 	andi	r2,r2,255
  8010dc:	1080201c 	xori	r2,r2,128
  8010e0:	10bfe004 	addi	r2,r2,-128
  8010e4:	10000c1e 	bne	r2,zero,801118 <logic+0xe88>
  8010e8:	e0bffd17 	ldw	r2,-12(fp)
  8010ec:	108009c3 	ldbu	r2,39(r2)
  8010f0:	10803fcc 	andi	r2,r2,255
  8010f4:	1080201c 	xori	r2,r2,128
  8010f8:	10bfe004 	addi	r2,r2,-128
  8010fc:	1000061e 	bne	r2,zero,801118 <logic+0xe88>
  801100:	e0bffd17 	ldw	r2,-12(fp)
  801104:	10800a03 	ldbu	r2,40(r2)
  801108:	10803fcc 	andi	r2,r2,255
  80110c:	1080201c 	xori	r2,r2,128
  801110:	10bfe004 	addi	r2,r2,-128
  801114:	10000226 	beq	r2,zero,801120 <logic+0xe90>
  801118:	00800044 	movi	r2,1
  80111c:	00000106 	br	801124 <logic+0xe94>
  801120:	0005883a 	mov	r2,zero
  801124:	1007883a 	mov	r3,r2
  801128:	e0bffd17 	ldw	r2,-12(fp)
  80112c:	10c02445 	stb	r3,145(r2)
  d->_g75 = d->_g72 && d->_cg74 || d->_g73 && d->_cg76;
  801130:	e0bffd17 	ldw	r2,-12(fp)
  801134:	10801503 	ldbu	r2,84(r2)
  801138:	10803fcc 	andi	r2,r2,255
  80113c:	1080201c 	xori	r2,r2,128
  801140:	10bfe004 	addi	r2,r2,-128
  801144:	10000626 	beq	r2,zero,801160 <logic+0xed0>
  801148:	e0bffd17 	ldw	r2,-12(fp)
  80114c:	108023c3 	ldbu	r2,143(r2)
  801150:	10803fcc 	andi	r2,r2,255
  801154:	1080201c 	xori	r2,r2,128
  801158:	10bfe004 	addi	r2,r2,-128
  80115c:	10000c1e 	bne	r2,zero,801190 <logic+0xf00>
  801160:	e0bffd17 	ldw	r2,-12(fp)
  801164:	10801543 	ldbu	r2,85(r2)
  801168:	10803fcc 	andi	r2,r2,255
  80116c:	1080201c 	xori	r2,r2,128
  801170:	10bfe004 	addi	r2,r2,-128
  801174:	10000826 	beq	r2,zero,801198 <logic+0xf08>
  801178:	e0bffd17 	ldw	r2,-12(fp)
  80117c:	10802443 	ldbu	r2,145(r2)
  801180:	10803fcc 	andi	r2,r2,255
  801184:	1080201c 	xori	r2,r2,128
  801188:	10bfe004 	addi	r2,r2,-128
  80118c:	10000226 	beq	r2,zero,801198 <logic+0xf08>
  801190:	00800044 	movi	r2,1
  801194:	00000106 	br	80119c <logic+0xf0c>
  801198:	0005883a 	mov	r2,zero
  80119c:	1007883a 	mov	r3,r2
  8011a0:	e0bffd17 	ldw	r2,-12(fp)
  8011a4:	10c01585 	stb	r3,86(r2)
  d->_g83_e5 = !d->_g82;
  8011a8:	e0bffd17 	ldw	r2,-12(fp)
  8011ac:	10801603 	ldbu	r2,88(r2)
  8011b0:	10803fcc 	andi	r2,r2,255
  8011b4:	1080201c 	xori	r2,r2,128
  8011b8:	10bfe004 	addi	r2,r2,-128
  8011bc:	1005003a 	cmpeq	r2,r2,zero
  8011c0:	1007883a 	mov	r3,r2
  8011c4:	e0bffd17 	ldw	r2,-12(fp)
  8011c8:	10c02a45 	stb	r3,169(r2)
  d->_cg82 = d->_Pacemaker_local__Atrig2 || d->_Pacemaker_local__Atrig3 || d->_Pacemaker_local__Atrig4;
  8011cc:	e0bffd17 	ldw	r2,-12(fp)
  8011d0:	10800983 	ldbu	r2,38(r2)
  8011d4:	10803fcc 	andi	r2,r2,255
  8011d8:	1080201c 	xori	r2,r2,128
  8011dc:	10bfe004 	addi	r2,r2,-128
  8011e0:	10000c1e 	bne	r2,zero,801214 <logic+0xf84>
  8011e4:	e0bffd17 	ldw	r2,-12(fp)
  8011e8:	108009c3 	ldbu	r2,39(r2)
  8011ec:	10803fcc 	andi	r2,r2,255
  8011f0:	1080201c 	xori	r2,r2,128
  8011f4:	10bfe004 	addi	r2,r2,-128
  8011f8:	1000061e 	bne	r2,zero,801214 <logic+0xf84>
  8011fc:	e0bffd17 	ldw	r2,-12(fp)
  801200:	10800a03 	ldbu	r2,40(r2)
  801204:	10803fcc 	andi	r2,r2,255
  801208:	1080201c 	xori	r2,r2,128
  80120c:	10bfe004 	addi	r2,r2,-128
  801210:	10000226 	beq	r2,zero,80121c <logic+0xf8c>
  801214:	00800044 	movi	r2,1
  801218:	00000106 	br	801220 <logic+0xf90>
  80121c:	0005883a 	mov	r2,zero
  801220:	1007883a 	mov	r3,r2
  801224:	e0bffd17 	ldw	r2,-12(fp)
  801228:	10c02505 	stb	r3,148(r2)
  d->_g83 = d->_g82 && d->_cg82;
  80122c:	e0bffd17 	ldw	r2,-12(fp)
  801230:	10801603 	ldbu	r2,88(r2)
  801234:	10803fcc 	andi	r2,r2,255
  801238:	1080201c 	xori	r2,r2,128
  80123c:	10bfe004 	addi	r2,r2,-128
  801240:	10000826 	beq	r2,zero,801264 <logic+0xfd4>
  801244:	e0bffd17 	ldw	r2,-12(fp)
  801248:	10802503 	ldbu	r2,148(r2)
  80124c:	10803fcc 	andi	r2,r2,255
  801250:	1080201c 	xori	r2,r2,128
  801254:	10bfe004 	addi	r2,r2,-128
  801258:	10000226 	beq	r2,zero,801264 <logic+0xfd4>
  80125c:	00800044 	movi	r2,1
  801260:	00000106 	br	801268 <logic+0xfd8>
  801264:	0005883a 	mov	r2,zero
  801268:	1007883a 	mov	r3,r2
  80126c:	e0bffd17 	ldw	r2,-12(fp)
  801270:	10c01645 	stb	r3,89(r2)
  d->_g93 = d->_pg54;
  801274:	e0bffd17 	ldw	r2,-12(fp)
  801278:	10c02d83 	ldbu	r3,182(r2)
  80127c:	e0bffd17 	ldw	r2,-12(fp)
  801280:	10c01745 	stb	r3,93(r2)
  d->_g87 = d->_pg52;
  801284:	e0bffd17 	ldw	r2,-12(fp)
  801288:	10c02dc3 	ldbu	r3,183(r2)
  80128c:	e0bffd17 	ldw	r2,-12(fp)
  801290:	10c01685 	stb	r3,90(r2)
  d->_g90_e6 = !(d->_g93 || d->_g87);
  801294:	e0bffd17 	ldw	r2,-12(fp)
  801298:	10801743 	ldbu	r2,93(r2)
  80129c:	10803fcc 	andi	r2,r2,255
  8012a0:	1080201c 	xori	r2,r2,128
  8012a4:	10bfe004 	addi	r2,r2,-128
  8012a8:	1000081e 	bne	r2,zero,8012cc <logic+0x103c>
  8012ac:	e0bffd17 	ldw	r2,-12(fp)
  8012b0:	10801683 	ldbu	r2,90(r2)
  8012b4:	10803fcc 	andi	r2,r2,255
  8012b8:	1080201c 	xori	r2,r2,128
  8012bc:	10bfe004 	addi	r2,r2,-128
  8012c0:	1000021e 	bne	r2,zero,8012cc <logic+0x103c>
  8012c4:	00800044 	movi	r2,1
  8012c8:	00000106 	br	8012d0 <logic+0x1040>
  8012cc:	0005883a 	mov	r2,zero
  8012d0:	1007883a 	mov	r3,r2
  8012d4:	e0bffd17 	ldw	r2,-12(fp)
  8012d8:	10c02a85 	stb	r3,170(r2)
  d->_g93 = d->_g87 || d->_g93;
  8012dc:	e0bffd17 	ldw	r2,-12(fp)
  8012e0:	10801683 	ldbu	r2,90(r2)
  8012e4:	10803fcc 	andi	r2,r2,255
  8012e8:	1080201c 	xori	r2,r2,128
  8012ec:	10bfe004 	addi	r2,r2,-128
  8012f0:	1000061e 	bne	r2,zero,80130c <logic+0x107c>
  8012f4:	e0bffd17 	ldw	r2,-12(fp)
  8012f8:	10801743 	ldbu	r2,93(r2)
  8012fc:	10803fcc 	andi	r2,r2,255
  801300:	1080201c 	xori	r2,r2,128
  801304:	10bfe004 	addi	r2,r2,-128
  801308:	10000226 	beq	r2,zero,801314 <logic+0x1084>
  80130c:	00800044 	movi	r2,1
  801310:	00000106 	br	801318 <logic+0x1088>
  801314:	0005883a 	mov	r2,zero
  801318:	1007883a 	mov	r3,r2
  80131c:	e0bffd17 	ldw	r2,-12(fp)
  801320:	10c01745 	stb	r3,93(r2)
  d->_cg88 = d->_region0_Atrium_AtriumTimer < AVI_VALUE;
  801324:	e13ffd17 	ldw	r4,-12(fp)
  801328:	20800217 	ldw	r2,8(r4)
  80132c:	20c00317 	ldw	r3,12(r4)
  801330:	04000044 	movi	r16,1
  801334:	000d883a 	mov	r6,zero
  801338:	01d01cf4 	movhi	r7,16499
  80133c:	39f00004 	addi	r7,r7,-16384
  801340:	1009883a 	mov	r4,r2
  801344:	180b883a 	mov	r5,r3
  801348:	08053100 	call	805310 <__ledf2>
  80134c:	10000116 	blt	r2,zero,801354 <logic+0x10c4>
  801350:	0021883a 	mov	r16,zero
  801354:	8007883a 	mov	r3,r16
  801358:	e0bffd17 	ldw	r2,-12(fp)
  80135c:	10c02605 	stb	r3,152(r2)
  d->_g87 = d->_g93 && d->_cg88;
  801360:	e0bffd17 	ldw	r2,-12(fp)
  801364:	10801743 	ldbu	r2,93(r2)
  801368:	10803fcc 	andi	r2,r2,255
  80136c:	1080201c 	xori	r2,r2,128
  801370:	10bfe004 	addi	r2,r2,-128
  801374:	10000826 	beq	r2,zero,801398 <logic+0x1108>
  801378:	e0bffd17 	ldw	r2,-12(fp)
  80137c:	10802603 	ldbu	r2,152(r2)
  801380:	10803fcc 	andi	r2,r2,255
  801384:	1080201c 	xori	r2,r2,128
  801388:	10bfe004 	addi	r2,r2,-128
  80138c:	10000226 	beq	r2,zero,801398 <logic+0x1108>
  801390:	00800044 	movi	r2,1
  801394:	00000106 	br	80139c <logic+0x110c>
  801398:	0005883a 	mov	r2,zero
  80139c:	1007883a 	mov	r3,r2
  8013a0:	e0bffd17 	ldw	r2,-12(fp)
  8013a4:	10c01685 	stb	r3,90(r2)
  if (d->_g87) {
  8013a8:	e0bffd17 	ldw	r2,-12(fp)
  8013ac:	10801683 	ldbu	r2,90(r2)
  8013b0:	10803fcc 	andi	r2,r2,255
  8013b4:	1080201c 	xori	r2,r2,128
  8013b8:	10bfe004 	addi	r2,r2,-128
  8013bc:	10002a26 	beq	r2,zero,801468 <logic+0x11d8>
    d->sleepT = (d->sleepT < (AVI_VALUE - d->_region0_Atrium_AtriumTimer)) ? d->sleepT : (AVI_VALUE - d->_region0_Atrium_AtriumTimer);
  8013c0:	e0bffd17 	ldw	r2,-12(fp)
  8013c4:	14000617 	ldw	r16,24(r2)
  8013c8:	14400717 	ldw	r17,28(r2)
  8013cc:	e13ffd17 	ldw	r4,-12(fp)
  8013d0:	20800217 	ldw	r2,8(r4)
  8013d4:	20c00317 	ldw	r3,12(r4)
  8013d8:	100d883a 	mov	r6,r2
  8013dc:	180f883a 	mov	r7,r3
  8013e0:	0009883a 	mov	r4,zero
  8013e4:	01501cf4 	movhi	r5,16499
  8013e8:	29700004 	addi	r5,r5,-16384
  8013ec:	0805b1c0 	call	805b1c <__subdf3>
  8013f0:	1009883a 	mov	r4,r2
  8013f4:	180b883a 	mov	r5,r3
  8013f8:	2005883a 	mov	r2,r4
  8013fc:	2807883a 	mov	r3,r5
  801400:	100d883a 	mov	r6,r2
  801404:	180f883a 	mov	r7,r3
  801408:	8009883a 	mov	r4,r16
  80140c:	880b883a 	mov	r5,r17
  801410:	08053100 	call	805310 <__ledf2>
  801414:	1000040e 	bge	r2,zero,801428 <logic+0x1198>
  801418:	e13ffd17 	ldw	r4,-12(fp)
  80141c:	20800617 	ldw	r2,24(r4)
  801420:	20c00717 	ldw	r3,28(r4)
  801424:	00000d06 	br	80145c <logic+0x11cc>
  801428:	e13ffd17 	ldw	r4,-12(fp)
  80142c:	20800217 	ldw	r2,8(r4)
  801430:	20c00317 	ldw	r3,12(r4)
  801434:	100d883a 	mov	r6,r2
  801438:	180f883a 	mov	r7,r3
  80143c:	0009883a 	mov	r4,zero
  801440:	01501cf4 	movhi	r5,16499
  801444:	29700004 	addi	r5,r5,-16384
  801448:	0805b1c0 	call	805b1c <__subdf3>
  80144c:	1009883a 	mov	r4,r2
  801450:	180b883a 	mov	r5,r3
  801454:	2005883a 	mov	r2,r4
  801458:	2807883a 	mov	r3,r5
  80145c:	e13ffd17 	ldw	r4,-12(fp)
  801460:	20800615 	stw	r2,24(r4)
  801464:	20c00715 	stw	r3,28(r4)
  }
  d->_cg89 = d->_Pacemaker_local__Atrig2 || d->_Pacemaker_local__Atrig3 || d->_Pacemaker_local__Atrig4;
  801468:	e0bffd17 	ldw	r2,-12(fp)
  80146c:	10800983 	ldbu	r2,38(r2)
  801470:	10803fcc 	andi	r2,r2,255
  801474:	1080201c 	xori	r2,r2,128
  801478:	10bfe004 	addi	r2,r2,-128
  80147c:	10000c1e 	bne	r2,zero,8014b0 <logic+0x1220>
  801480:	e0bffd17 	ldw	r2,-12(fp)
  801484:	108009c3 	ldbu	r2,39(r2)
  801488:	10803fcc 	andi	r2,r2,255
  80148c:	1080201c 	xori	r2,r2,128
  801490:	10bfe004 	addi	r2,r2,-128
  801494:	1000061e 	bne	r2,zero,8014b0 <logic+0x1220>
  801498:	e0bffd17 	ldw	r2,-12(fp)
  80149c:	10800a03 	ldbu	r2,40(r2)
  8014a0:	10803fcc 	andi	r2,r2,255
  8014a4:	1080201c 	xori	r2,r2,128
  8014a8:	10bfe004 	addi	r2,r2,-128
  8014ac:	10000226 	beq	r2,zero,8014b8 <logic+0x1228>
  8014b0:	00800044 	movi	r2,1
  8014b4:	00000106 	br	8014bc <logic+0x122c>
  8014b8:	0005883a 	mov	r2,zero
  8014bc:	1007883a 	mov	r3,r2
  8014c0:	e0bffd17 	ldw	r2,-12(fp)
  8014c4:	10c025c5 	stb	r3,151(r2)
  d->_g88 = d->_g93 && !d->_cg88;
  8014c8:	e0bffd17 	ldw	r2,-12(fp)
  8014cc:	10801743 	ldbu	r2,93(r2)
  8014d0:	10803fcc 	andi	r2,r2,255
  8014d4:	1080201c 	xori	r2,r2,128
  8014d8:	10bfe004 	addi	r2,r2,-128
  8014dc:	10000826 	beq	r2,zero,801500 <logic+0x1270>
  8014e0:	e0bffd17 	ldw	r2,-12(fp)
  8014e4:	10802603 	ldbu	r2,152(r2)
  8014e8:	10803fcc 	andi	r2,r2,255
  8014ec:	1080201c 	xori	r2,r2,128
  8014f0:	10bfe004 	addi	r2,r2,-128
  8014f4:	1000021e 	bne	r2,zero,801500 <logic+0x1270>
  8014f8:	00800044 	movi	r2,1
  8014fc:	00000106 	br	801504 <logic+0x1274>
  801500:	0005883a 	mov	r2,zero
  801504:	1007883a 	mov	r3,r2
  801508:	e0bffd17 	ldw	r2,-12(fp)
  80150c:	10c016c5 	stb	r3,91(r2)
  d->_cg91 = d->_Pacemaker_local__Atrig2 || d->_Pacemaker_local__Atrig3 || d->_Pacemaker_local__Atrig4;
  801510:	e0bffd17 	ldw	r2,-12(fp)
  801514:	10800983 	ldbu	r2,38(r2)
  801518:	10803fcc 	andi	r2,r2,255
  80151c:	1080201c 	xori	r2,r2,128
  801520:	10bfe004 	addi	r2,r2,-128
  801524:	10000c1e 	bne	r2,zero,801558 <logic+0x12c8>
  801528:	e0bffd17 	ldw	r2,-12(fp)
  80152c:	108009c3 	ldbu	r2,39(r2)
  801530:	10803fcc 	andi	r2,r2,255
  801534:	1080201c 	xori	r2,r2,128
  801538:	10bfe004 	addi	r2,r2,-128
  80153c:	1000061e 	bne	r2,zero,801558 <logic+0x12c8>
  801540:	e0bffd17 	ldw	r2,-12(fp)
  801544:	10800a03 	ldbu	r2,40(r2)
  801548:	10803fcc 	andi	r2,r2,255
  80154c:	1080201c 	xori	r2,r2,128
  801550:	10bfe004 	addi	r2,r2,-128
  801554:	10000226 	beq	r2,zero,801560 <logic+0x12d0>
  801558:	00800044 	movi	r2,1
  80155c:	00000106 	br	801564 <logic+0x12d4>
  801560:	0005883a 	mov	r2,zero
  801564:	1007883a 	mov	r3,r2
  801568:	e0bffd17 	ldw	r2,-12(fp)
  80156c:	10c02645 	stb	r3,153(r2)
  d->_g90 = d->_g87 && d->_cg89 || d->_g88 && d->_cg91;
  801570:	e0bffd17 	ldw	r2,-12(fp)
  801574:	10801683 	ldbu	r2,90(r2)
  801578:	10803fcc 	andi	r2,r2,255
  80157c:	1080201c 	xori	r2,r2,128
  801580:	10bfe004 	addi	r2,r2,-128
  801584:	10000626 	beq	r2,zero,8015a0 <logic+0x1310>
  801588:	e0bffd17 	ldw	r2,-12(fp)
  80158c:	108025c3 	ldbu	r2,151(r2)
  801590:	10803fcc 	andi	r2,r2,255
  801594:	1080201c 	xori	r2,r2,128
  801598:	10bfe004 	addi	r2,r2,-128
  80159c:	10000c1e 	bne	r2,zero,8015d0 <logic+0x1340>
  8015a0:	e0bffd17 	ldw	r2,-12(fp)
  8015a4:	108016c3 	ldbu	r2,91(r2)
  8015a8:	10803fcc 	andi	r2,r2,255
  8015ac:	1080201c 	xori	r2,r2,128
  8015b0:	10bfe004 	addi	r2,r2,-128
  8015b4:	10000826 	beq	r2,zero,8015d8 <logic+0x1348>
  8015b8:	e0bffd17 	ldw	r2,-12(fp)
  8015bc:	10802643 	ldbu	r2,153(r2)
  8015c0:	10803fcc 	andi	r2,r2,255
  8015c4:	1080201c 	xori	r2,r2,128
  8015c8:	10bfe004 	addi	r2,r2,-128
  8015cc:	10000226 	beq	r2,zero,8015d8 <logic+0x1348>
  8015d0:	00800044 	movi	r2,1
  8015d4:	00000106 	br	8015dc <logic+0x134c>
  8015d8:	0005883a 	mov	r2,zero
  8015dc:	1007883a 	mov	r3,r2
  8015e0:	e0bffd17 	ldw	r2,-12(fp)
  8015e4:	10c01705 	stb	r3,92(r2)
  d->_g97 = !d->_g97;
  8015e8:	e0bffd17 	ldw	r2,-12(fp)
  8015ec:	10801783 	ldbu	r2,94(r2)
  8015f0:	10803fcc 	andi	r2,r2,255
  8015f4:	1080201c 	xori	r2,r2,128
  8015f8:	10bfe004 	addi	r2,r2,-128
  8015fc:	1005003a 	cmpeq	r2,r2,zero
  801600:	1007883a 	mov	r3,r2
  801604:	e0bffd17 	ldw	r2,-12(fp)
  801608:	10c01785 	stb	r3,94(r2)
  d->_g101 = d->_g98 || d->_g101 || d->_g103;
  80160c:	e0bffd17 	ldw	r2,-12(fp)
  801610:	108017c3 	ldbu	r2,95(r2)
  801614:	10803fcc 	andi	r2,r2,255
  801618:	1080201c 	xori	r2,r2,128
  80161c:	10bfe004 	addi	r2,r2,-128
  801620:	10000c1e 	bne	r2,zero,801654 <logic+0x13c4>
  801624:	e0bffd17 	ldw	r2,-12(fp)
  801628:	10801883 	ldbu	r2,98(r2)
  80162c:	10803fcc 	andi	r2,r2,255
  801630:	1080201c 	xori	r2,r2,128
  801634:	10bfe004 	addi	r2,r2,-128
  801638:	1000061e 	bne	r2,zero,801654 <logic+0x13c4>
  80163c:	e0bffd17 	ldw	r2,-12(fp)
  801640:	108018c3 	ldbu	r2,99(r2)
  801644:	10803fcc 	andi	r2,r2,255
  801648:	1080201c 	xori	r2,r2,128
  80164c:	10bfe004 	addi	r2,r2,-128
  801650:	10000226 	beq	r2,zero,80165c <logic+0x13cc>
  801654:	00800044 	movi	r2,1
  801658:	00000106 	br	801660 <logic+0x13d0>
  80165c:	0005883a 	mov	r2,zero
  801660:	1007883a 	mov	r3,r2
  801664:	e0bffd17 	ldw	r2,-12(fp)
  801668:	10c01885 	stb	r3,98(r2)
  d->_g103 = (d->_g46_e1 || d->_g46) && (d->_g53_e2 || d->_g53) && (d->_g64_e3 || d->_g64) && (d->_g75_e4 || d->_g75) && (d->_g83_e5 || d->_g83) && (d->_g90_e6 || d->_g90) && (d->_g97 || d->_g101) && (d->_g46 || d->_g53 || d->_g64 || d->_g75 || d->_g83 || d->_g90 || d->_g101);
  80166c:	e0bffd17 	ldw	r2,-12(fp)
  801670:	10802943 	ldbu	r2,165(r2)
  801674:	10803fcc 	andi	r2,r2,255
  801678:	1080201c 	xori	r2,r2,128
  80167c:	10bfe004 	addi	r2,r2,-128
  801680:	1000061e 	bne	r2,zero,80169c <logic+0x140c>
  801684:	e0bffd17 	ldw	r2,-12(fp)
  801688:	10801183 	ldbu	r2,70(r2)
  80168c:	10803fcc 	andi	r2,r2,255
  801690:	1080201c 	xori	r2,r2,128
  801694:	10bfe004 	addi	r2,r2,-128
  801698:	10007426 	beq	r2,zero,80186c <logic+0x15dc>
  80169c:	e0bffd17 	ldw	r2,-12(fp)
  8016a0:	10802983 	ldbu	r2,166(r2)
  8016a4:	10803fcc 	andi	r2,r2,255
  8016a8:	1080201c 	xori	r2,r2,128
  8016ac:	10bfe004 	addi	r2,r2,-128
  8016b0:	1000061e 	bne	r2,zero,8016cc <logic+0x143c>
  8016b4:	e0bffd17 	ldw	r2,-12(fp)
  8016b8:	108012c3 	ldbu	r2,75(r2)
  8016bc:	10803fcc 	andi	r2,r2,255
  8016c0:	1080201c 	xori	r2,r2,128
  8016c4:	10bfe004 	addi	r2,r2,-128
  8016c8:	10006826 	beq	r2,zero,80186c <logic+0x15dc>
  8016cc:	e0bffd17 	ldw	r2,-12(fp)
  8016d0:	108029c3 	ldbu	r2,167(r2)
  8016d4:	10803fcc 	andi	r2,r2,255
  8016d8:	1080201c 	xori	r2,r2,128
  8016dc:	10bfe004 	addi	r2,r2,-128
  8016e0:	1000061e 	bne	r2,zero,8016fc <logic+0x146c>
  8016e4:	e0bffd17 	ldw	r2,-12(fp)
  8016e8:	10801483 	ldbu	r2,82(r2)
  8016ec:	10803fcc 	andi	r2,r2,255
  8016f0:	1080201c 	xori	r2,r2,128
  8016f4:	10bfe004 	addi	r2,r2,-128
  8016f8:	10005c26 	beq	r2,zero,80186c <logic+0x15dc>
  8016fc:	e0bffd17 	ldw	r2,-12(fp)
  801700:	10802a03 	ldbu	r2,168(r2)
  801704:	10803fcc 	andi	r2,r2,255
  801708:	1080201c 	xori	r2,r2,128
  80170c:	10bfe004 	addi	r2,r2,-128
  801710:	1000061e 	bne	r2,zero,80172c <logic+0x149c>
  801714:	e0bffd17 	ldw	r2,-12(fp)
  801718:	10801583 	ldbu	r2,86(r2)
  80171c:	10803fcc 	andi	r2,r2,255
  801720:	1080201c 	xori	r2,r2,128
  801724:	10bfe004 	addi	r2,r2,-128
  801728:	10005026 	beq	r2,zero,80186c <logic+0x15dc>
  80172c:	e0bffd17 	ldw	r2,-12(fp)
  801730:	10802a43 	ldbu	r2,169(r2)
  801734:	10803fcc 	andi	r2,r2,255
  801738:	1080201c 	xori	r2,r2,128
  80173c:	10bfe004 	addi	r2,r2,-128
  801740:	1000061e 	bne	r2,zero,80175c <logic+0x14cc>
  801744:	e0bffd17 	ldw	r2,-12(fp)
  801748:	10801643 	ldbu	r2,89(r2)
  80174c:	10803fcc 	andi	r2,r2,255
  801750:	1080201c 	xori	r2,r2,128
  801754:	10bfe004 	addi	r2,r2,-128
  801758:	10004426 	beq	r2,zero,80186c <logic+0x15dc>
  80175c:	e0bffd17 	ldw	r2,-12(fp)
  801760:	10802a83 	ldbu	r2,170(r2)
  801764:	10803fcc 	andi	r2,r2,255
  801768:	1080201c 	xori	r2,r2,128
  80176c:	10bfe004 	addi	r2,r2,-128
  801770:	1000061e 	bne	r2,zero,80178c <logic+0x14fc>
  801774:	e0bffd17 	ldw	r2,-12(fp)
  801778:	10801703 	ldbu	r2,92(r2)
  80177c:	10803fcc 	andi	r2,r2,255
  801780:	1080201c 	xori	r2,r2,128
  801784:	10bfe004 	addi	r2,r2,-128
  801788:	10003826 	beq	r2,zero,80186c <logic+0x15dc>
  80178c:	e0bffd17 	ldw	r2,-12(fp)
  801790:	10801783 	ldbu	r2,94(r2)
  801794:	10803fcc 	andi	r2,r2,255
  801798:	1080201c 	xori	r2,r2,128
  80179c:	10bfe004 	addi	r2,r2,-128
  8017a0:	1000061e 	bne	r2,zero,8017bc <logic+0x152c>
  8017a4:	e0bffd17 	ldw	r2,-12(fp)
  8017a8:	10801883 	ldbu	r2,98(r2)
  8017ac:	10803fcc 	andi	r2,r2,255
  8017b0:	1080201c 	xori	r2,r2,128
  8017b4:	10bfe004 	addi	r2,r2,-128
  8017b8:	10002c26 	beq	r2,zero,80186c <logic+0x15dc>
  8017bc:	e0bffd17 	ldw	r2,-12(fp)
  8017c0:	10801183 	ldbu	r2,70(r2)
  8017c4:	10803fcc 	andi	r2,r2,255
  8017c8:	1080201c 	xori	r2,r2,128
  8017cc:	10bfe004 	addi	r2,r2,-128
  8017d0:	1000241e 	bne	r2,zero,801864 <logic+0x15d4>
  8017d4:	e0bffd17 	ldw	r2,-12(fp)
  8017d8:	108012c3 	ldbu	r2,75(r2)
  8017dc:	10803fcc 	andi	r2,r2,255
  8017e0:	1080201c 	xori	r2,r2,128
  8017e4:	10bfe004 	addi	r2,r2,-128
  8017e8:	10001e1e 	bne	r2,zero,801864 <logic+0x15d4>
  8017ec:	e0bffd17 	ldw	r2,-12(fp)
  8017f0:	10801483 	ldbu	r2,82(r2)
  8017f4:	10803fcc 	andi	r2,r2,255
  8017f8:	1080201c 	xori	r2,r2,128
  8017fc:	10bfe004 	addi	r2,r2,-128
  801800:	1000181e 	bne	r2,zero,801864 <logic+0x15d4>
  801804:	e0bffd17 	ldw	r2,-12(fp)
  801808:	10801583 	ldbu	r2,86(r2)
  80180c:	10803fcc 	andi	r2,r2,255
  801810:	1080201c 	xori	r2,r2,128
  801814:	10bfe004 	addi	r2,r2,-128
  801818:	1000121e 	bne	r2,zero,801864 <logic+0x15d4>
  80181c:	e0bffd17 	ldw	r2,-12(fp)
  801820:	10801643 	ldbu	r2,89(r2)
  801824:	10803fcc 	andi	r2,r2,255
  801828:	1080201c 	xori	r2,r2,128
  80182c:	10bfe004 	addi	r2,r2,-128
  801830:	10000c1e 	bne	r2,zero,801864 <logic+0x15d4>
  801834:	e0bffd17 	ldw	r2,-12(fp)
  801838:	10801703 	ldbu	r2,92(r2)
  80183c:	10803fcc 	andi	r2,r2,255
  801840:	1080201c 	xori	r2,r2,128
  801844:	10bfe004 	addi	r2,r2,-128
  801848:	1000061e 	bne	r2,zero,801864 <logic+0x15d4>
  80184c:	e0bffd17 	ldw	r2,-12(fp)
  801850:	10801883 	ldbu	r2,98(r2)
  801854:	10803fcc 	andi	r2,r2,255
  801858:	1080201c 	xori	r2,r2,128
  80185c:	10bfe004 	addi	r2,r2,-128
  801860:	10000226 	beq	r2,zero,80186c <logic+0x15dc>
  801864:	00800044 	movi	r2,1
  801868:	00000106 	br	801870 <logic+0x15e0>
  80186c:	0005883a 	mov	r2,zero
  801870:	1007883a 	mov	r3,r2
  801874:	e0bffd17 	ldw	r2,-12(fp)
  801878:	10c018c5 	stb	r3,99(r2)
  d->_cg104 = d->_Pacemaker_local__Atrig2;
  80187c:	e0bffd17 	ldw	r2,-12(fp)
  801880:	10c00983 	ldbu	r3,38(r2)
  801884:	e0bffd17 	ldw	r2,-12(fp)
  801888:	10c02785 	stb	r3,158(r2)
  d->_g98 = d->_pg64_e3;
  80188c:	e0bffd17 	ldw	r2,-12(fp)
  801890:	10c02e03 	ldbu	r3,184(r2)
  801894:	e0bffd17 	ldw	r2,-12(fp)
  801898:	10c017c5 	stb	r3,95(r2)
  d->_g64_e3 = d->_GO || d->_g98;
  80189c:	e0bffd17 	ldw	r2,-12(fp)
  8018a0:	10801ac3 	ldbu	r2,107(r2)
  8018a4:	10803fcc 	andi	r2,r2,255
  8018a8:	1080201c 	xori	r2,r2,128
  8018ac:	10bfe004 	addi	r2,r2,-128
  8018b0:	1000061e 	bne	r2,zero,8018cc <logic+0x163c>
  8018b4:	e0bffd17 	ldw	r2,-12(fp)
  8018b8:	108017c3 	ldbu	r2,95(r2)
  8018bc:	10803fcc 	andi	r2,r2,255
  8018c0:	1080201c 	xori	r2,r2,128
  8018c4:	10bfe004 	addi	r2,r2,-128
  8018c8:	10000226 	beq	r2,zero,8018d4 <logic+0x1644>
  8018cc:	00800044 	movi	r2,1
  8018d0:	00000106 	br	8018d8 <logic+0x1648>
  8018d4:	0005883a 	mov	r2,zero
  8018d8:	1007883a 	mov	r3,r2
  8018dc:	e0bffd17 	ldw	r2,-12(fp)
  8018e0:	10c029c5 	stb	r3,167(r2)
  if (d->_g64_e3) {
  8018e4:	e0bffd17 	ldw	r2,-12(fp)
  8018e8:	108029c3 	ldbu	r2,167(r2)
  8018ec:	10803fcc 	andi	r2,r2,255
  8018f0:	1080201c 	xori	r2,r2,128
  8018f4:	10bfe004 	addi	r2,r2,-128
  8018f8:	10000426 	beq	r2,zero,80190c <logic+0x167c>
    d->AP = 0;
  8018fc:	e0bffd17 	ldw	r2,-12(fp)
  801900:	10000885 	stb	zero,34(r2)
    d->VP = 0;
  801904:	e0bffd17 	ldw	r2,-12(fp)
  801908:	100008c5 	stb	zero,35(r2)
  }
  d->_g99 = d->_g103 && !d->_cg104;
  80190c:	e0bffd17 	ldw	r2,-12(fp)
  801910:	108018c3 	ldbu	r2,99(r2)
  801914:	10803fcc 	andi	r2,r2,255
  801918:	1080201c 	xori	r2,r2,128
  80191c:	10bfe004 	addi	r2,r2,-128
  801920:	10000826 	beq	r2,zero,801944 <logic+0x16b4>
  801924:	e0bffd17 	ldw	r2,-12(fp)
  801928:	10802783 	ldbu	r2,158(r2)
  80192c:	10803fcc 	andi	r2,r2,255
  801930:	1080201c 	xori	r2,r2,128
  801934:	10bfe004 	addi	r2,r2,-128
  801938:	1000021e 	bne	r2,zero,801944 <logic+0x16b4>
  80193c:	00800044 	movi	r2,1
  801940:	00000106 	br	801948 <logic+0x16b8>
  801944:	0005883a 	mov	r2,zero
  801948:	1007883a 	mov	r3,r2
  80194c:	e0bffd17 	ldw	r2,-12(fp)
  801950:	10c01805 	stb	r3,96(r2)
  d->_cg106 = d->_Pacemaker_local__Atrig3;
  801954:	e0bffd17 	ldw	r2,-12(fp)
  801958:	10c009c3 	ldbu	r3,39(r2)
  80195c:	e0bffd17 	ldw	r2,-12(fp)
  801960:	10c027c5 	stb	r3,159(r2)
  d->_g46 = d->_g99 && d->_cg106;
  801964:	e0bffd17 	ldw	r2,-12(fp)
  801968:	10801803 	ldbu	r2,96(r2)
  80196c:	10803fcc 	andi	r2,r2,255
  801970:	1080201c 	xori	r2,r2,128
  801974:	10bfe004 	addi	r2,r2,-128
  801978:	10000826 	beq	r2,zero,80199c <logic+0x170c>
  80197c:	e0bffd17 	ldw	r2,-12(fp)
  801980:	108027c3 	ldbu	r2,159(r2)
  801984:	10803fcc 	andi	r2,r2,255
  801988:	1080201c 	xori	r2,r2,128
  80198c:	10bfe004 	addi	r2,r2,-128
  801990:	10000226 	beq	r2,zero,80199c <logic+0x170c>
  801994:	00800044 	movi	r2,1
  801998:	00000106 	br	8019a0 <logic+0x1710>
  80199c:	0005883a 	mov	r2,zero
  8019a0:	1007883a 	mov	r3,r2
  8019a4:	e0bffd17 	ldw	r2,-12(fp)
  8019a8:	10c01185 	stb	r3,70(r2)
  if (d->_g46) {
  8019ac:	e0bffd17 	ldw	r2,-12(fp)
  8019b0:	10801183 	ldbu	r2,70(r2)
  8019b4:	10803fcc 	andi	r2,r2,255
  8019b8:	1080201c 	xori	r2,r2,128
  8019bc:	10bfe004 	addi	r2,r2,-128
  8019c0:	10000626 	beq	r2,zero,8019dc <logic+0x174c>
    d->VP |= 1;
  8019c4:	e0bffd17 	ldw	r2,-12(fp)
  8019c8:	108008c3 	ldbu	r2,35(r2)
  8019cc:	10800054 	ori	r2,r2,1
  8019d0:	1007883a 	mov	r3,r2
  8019d4:	e0bffd17 	ldw	r2,-12(fp)
  8019d8:	10c008c5 	stb	r3,35(r2)
  }
  d->_g46_e1 = d->_g99 && !d->_cg106;
  8019dc:	e0bffd17 	ldw	r2,-12(fp)
  8019e0:	10801803 	ldbu	r2,96(r2)
  8019e4:	10803fcc 	andi	r2,r2,255
  8019e8:	1080201c 	xori	r2,r2,128
  8019ec:	10bfe004 	addi	r2,r2,-128
  8019f0:	10000826 	beq	r2,zero,801a14 <logic+0x1784>
  8019f4:	e0bffd17 	ldw	r2,-12(fp)
  8019f8:	108027c3 	ldbu	r2,159(r2)
  8019fc:	10803fcc 	andi	r2,r2,255
  801a00:	1080201c 	xori	r2,r2,128
  801a04:	10bfe004 	addi	r2,r2,-128
  801a08:	1000021e 	bne	r2,zero,801a14 <logic+0x1784>
  801a0c:	00800044 	movi	r2,1
  801a10:	00000106 	br	801a18 <logic+0x1788>
  801a14:	0005883a 	mov	r2,zero
  801a18:	1007883a 	mov	r3,r2
  801a1c:	e0bffd17 	ldw	r2,-12(fp)
  801a20:	10c02945 	stb	r3,165(r2)
  if (d->_g46_e1) {
  801a24:	e0bffd17 	ldw	r2,-12(fp)
  801a28:	10802943 	ldbu	r2,165(r2)
  801a2c:	10803fcc 	andi	r2,r2,255
  801a30:	1080201c 	xori	r2,r2,128
  801a34:	10bfe004 	addi	r2,r2,-128
  801a38:	10000626 	beq	r2,zero,801a54 <logic+0x17c4>
    d->VP |= 1;
  801a3c:	e0bffd17 	ldw	r2,-12(fp)
  801a40:	108008c3 	ldbu	r2,35(r2)
  801a44:	10800054 	ori	r2,r2,1
  801a48:	1007883a 	mov	r3,r2
  801a4c:	e0bffd17 	ldw	r2,-12(fp)
  801a50:	10c008c5 	stb	r3,35(r2)
  }
  d->_g64 = d->_g103 && d->_cg104 || d->_g46 || d->_g46_e1;
  801a54:	e0bffd17 	ldw	r2,-12(fp)
  801a58:	108018c3 	ldbu	r2,99(r2)
  801a5c:	10803fcc 	andi	r2,r2,255
  801a60:	1080201c 	xori	r2,r2,128
  801a64:	10bfe004 	addi	r2,r2,-128
  801a68:	10000626 	beq	r2,zero,801a84 <logic+0x17f4>
  801a6c:	e0bffd17 	ldw	r2,-12(fp)
  801a70:	10802783 	ldbu	r2,158(r2)
  801a74:	10803fcc 	andi	r2,r2,255
  801a78:	1080201c 	xori	r2,r2,128
  801a7c:	10bfe004 	addi	r2,r2,-128
  801a80:	10000c1e 	bne	r2,zero,801ab4 <logic+0x1824>
  801a84:	e0bffd17 	ldw	r2,-12(fp)
  801a88:	10801183 	ldbu	r2,70(r2)
  801a8c:	10803fcc 	andi	r2,r2,255
  801a90:	1080201c 	xori	r2,r2,128
  801a94:	10bfe004 	addi	r2,r2,-128
  801a98:	1000061e 	bne	r2,zero,801ab4 <logic+0x1824>
  801a9c:	e0bffd17 	ldw	r2,-12(fp)
  801aa0:	10802943 	ldbu	r2,165(r2)
  801aa4:	10803fcc 	andi	r2,r2,255
  801aa8:	1080201c 	xori	r2,r2,128
  801aac:	10bfe004 	addi	r2,r2,-128
  801ab0:	10000226 	beq	r2,zero,801abc <logic+0x182c>
  801ab4:	00800044 	movi	r2,1
  801ab8:	00000106 	br	801ac0 <logic+0x1830>
  801abc:	0005883a 	mov	r2,zero
  801ac0:	1007883a 	mov	r3,r2
  801ac4:	e0bffd17 	ldw	r2,-12(fp)
  801ac8:	10c01485 	stb	r3,82(r2)
  if (d->_g64) {
  801acc:	e0bffd17 	ldw	r2,-12(fp)
  801ad0:	10801483 	ldbu	r2,82(r2)
  801ad4:	10803fcc 	andi	r2,r2,255
  801ad8:	1080201c 	xori	r2,r2,128
  801adc:	10bfe004 	addi	r2,r2,-128
  801ae0:	10000326 	beq	r2,zero,801af0 <logic+0x1860>
    d->_region0_Atrium_VentricleTimer = 0;
  801ae4:	e0bffd17 	ldw	r2,-12(fp)
  801ae8:	10000015 	stw	zero,0(r2)
  801aec:	10000115 	stw	zero,4(r2)
  }
  d->_g53 = d->_GO || d->_g64;
  801af0:	e0bffd17 	ldw	r2,-12(fp)
  801af4:	10801ac3 	ldbu	r2,107(r2)
  801af8:	10803fcc 	andi	r2,r2,255
  801afc:	1080201c 	xori	r2,r2,128
  801b00:	10bfe004 	addi	r2,r2,-128
  801b04:	1000061e 	bne	r2,zero,801b20 <logic+0x1890>
  801b08:	e0bffd17 	ldw	r2,-12(fp)
  801b0c:	10801483 	ldbu	r2,82(r2)
  801b10:	10803fcc 	andi	r2,r2,255
  801b14:	1080201c 	xori	r2,r2,128
  801b18:	10bfe004 	addi	r2,r2,-128
  801b1c:	10000226 	beq	r2,zero,801b28 <logic+0x1898>
  801b20:	00800044 	movi	r2,1
  801b24:	00000106 	br	801b2c <logic+0x189c>
  801b28:	0005883a 	mov	r2,zero
  801b2c:	1007883a 	mov	r3,r2
  801b30:	e0bffd17 	ldw	r2,-12(fp)
  801b34:	10c012c5 	stb	r3,75(r2)
  if (d->_g53) {
  801b38:	e0bffd17 	ldw	r2,-12(fp)
  801b3c:	108012c3 	ldbu	r2,75(r2)
  801b40:	10803fcc 	andi	r2,r2,255
  801b44:	1080201c 	xori	r2,r2,128
  801b48:	10bfe004 	addi	r2,r2,-128
  801b4c:	10000426 	beq	r2,zero,801b60 <logic+0x18d0>
    d->_Pacemaker_local__Atrig = 0;
  801b50:	e0bffd17 	ldw	r2,-12(fp)
  801b54:	10000905 	stb	zero,36(r2)
    d->_Pacemaker_local__Atrig1 = 0;
  801b58:	e0bffd17 	ldw	r2,-12(fp)
  801b5c:	10000945 	stb	zero,37(r2)
  }
  d->_cg4 = d->_Pacemaker_local__Atrig || d->_Pacemaker_local__Atrig1;
  801b60:	e0bffd17 	ldw	r2,-12(fp)
  801b64:	10800903 	ldbu	r2,36(r2)
  801b68:	10803fcc 	andi	r2,r2,255
  801b6c:	1080201c 	xori	r2,r2,128
  801b70:	10bfe004 	addi	r2,r2,-128
  801b74:	1000061e 	bne	r2,zero,801b90 <logic+0x1900>
  801b78:	e0bffd17 	ldw	r2,-12(fp)
  801b7c:	10800943 	ldbu	r2,37(r2)
  801b80:	10803fcc 	andi	r2,r2,255
  801b84:	1080201c 	xori	r2,r2,128
  801b88:	10bfe004 	addi	r2,r2,-128
  801b8c:	10000226 	beq	r2,zero,801b98 <logic+0x1908>
  801b90:	00800044 	movi	r2,1
  801b94:	00000106 	br	801b9c <logic+0x190c>
  801b98:	0005883a 	mov	r2,zero
  801b9c:	1007883a 	mov	r3,r2
  801ba0:	e0bffd17 	ldw	r2,-12(fp)
  801ba4:	10c01b05 	stb	r3,108(r2)
  d->_g75 = d->_pg99_e7;
  801ba8:	e0bffd17 	ldw	r2,-12(fp)
  801bac:	10c02e43 	ldbu	r3,185(r2)
  801bb0:	e0bffd17 	ldw	r2,-12(fp)
  801bb4:	10c01585 	stb	r3,86(r2)
  if (d->_g75) {
  801bb8:	e0bffd17 	ldw	r2,-12(fp)
  801bbc:	10801583 	ldbu	r2,86(r2)
  801bc0:	10803fcc 	andi	r2,r2,255
  801bc4:	1080201c 	xori	r2,r2,128
  801bc8:	10bfe004 	addi	r2,r2,-128
  801bcc:	10001226 	beq	r2,zero,801c18 <logic+0x1988>
    d->_region0_Atrium_VentricleTimer += d->deltaT;
  801bd0:	e13ffd17 	ldw	r4,-12(fp)
  801bd4:	20800017 	ldw	r2,0(r4)
  801bd8:	20c00117 	ldw	r3,4(r4)
  801bdc:	e1bffd17 	ldw	r6,-12(fp)
  801be0:	31000417 	ldw	r4,16(r6)
  801be4:	31400517 	ldw	r5,20(r6)
  801be8:	200d883a 	mov	r6,r4
  801bec:	280f883a 	mov	r7,r5
  801bf0:	1009883a 	mov	r4,r2
  801bf4:	180b883a 	mov	r5,r3
  801bf8:	08049880 	call	804988 <__adddf3>
  801bfc:	1009883a 	mov	r4,r2
  801c00:	180b883a 	mov	r5,r3
  801c04:	2005883a 	mov	r2,r4
  801c08:	2807883a 	mov	r3,r5
  801c0c:	e13ffd17 	ldw	r4,-12(fp)
  801c10:	20800015 	stw	r2,0(r4)
  801c14:	20c00115 	stw	r3,4(r4)
  }
  d->_g83_e5 = d->_pg3;
  801c18:	e0bffd17 	ldw	r2,-12(fp)
  801c1c:	10c02e83 	ldbu	r3,186(r2)
  801c20:	e0bffd17 	ldw	r2,-12(fp)
  801c24:	10c02a45 	stb	r3,169(r2)
  d->_cg36 = d->_region0_Atrium_VentricleTimer >= PVARP_VALUE && d->AS;
  801c28:	e13ffd17 	ldw	r4,-12(fp)
  801c2c:	20800017 	ldw	r2,0(r4)
  801c30:	20c00117 	ldw	r3,4(r4)
  801c34:	000d883a 	mov	r6,zero
  801c38:	01d01274 	movhi	r7,16457
  801c3c:	1009883a 	mov	r4,r2
  801c40:	180b883a 	mov	r5,r3
  801c44:	08052340 	call	805234 <__gedf2>
  801c48:	10000816 	blt	r2,zero,801c6c <logic+0x19dc>
  801c4c:	e0bffd17 	ldw	r2,-12(fp)
  801c50:	10800803 	ldbu	r2,32(r2)
  801c54:	10803fcc 	andi	r2,r2,255
  801c58:	1080201c 	xori	r2,r2,128
  801c5c:	10bfe004 	addi	r2,r2,-128
  801c60:	10000226 	beq	r2,zero,801c6c <logic+0x19dc>
  801c64:	00800044 	movi	r2,1
  801c68:	00000106 	br	801c70 <logic+0x19e0>
  801c6c:	0005883a 	mov	r2,zero
  801c70:	1007883a 	mov	r3,r2
  801c74:	e0bffd17 	ldw	r2,-12(fp)
  801c78:	10c01f45 	stb	r3,125(r2)
  d->_g83 = d->_g83_e5 && d->_cg36;
  801c7c:	e0bffd17 	ldw	r2,-12(fp)
  801c80:	10802a43 	ldbu	r2,169(r2)
  801c84:	10803fcc 	andi	r2,r2,255
  801c88:	1080201c 	xori	r2,r2,128
  801c8c:	10bfe004 	addi	r2,r2,-128
  801c90:	10000826 	beq	r2,zero,801cb4 <logic+0x1a24>
  801c94:	e0bffd17 	ldw	r2,-12(fp)
  801c98:	10801f43 	ldbu	r2,125(r2)
  801c9c:	10803fcc 	andi	r2,r2,255
  801ca0:	1080201c 	xori	r2,r2,128
  801ca4:	10bfe004 	addi	r2,r2,-128
  801ca8:	10000226 	beq	r2,zero,801cb4 <logic+0x1a24>
  801cac:	00800044 	movi	r2,1
  801cb0:	00000106 	br	801cb8 <logic+0x1a28>
  801cb4:	0005883a 	mov	r2,zero
  801cb8:	1007883a 	mov	r3,r2
  801cbc:	e0bffd17 	ldw	r2,-12(fp)
  801cc0:	10c01645 	stb	r3,89(r2)
  if (d->_g83) {
  801cc4:	e0bffd17 	ldw	r2,-12(fp)
  801cc8:	10801643 	ldbu	r2,89(r2)
  801ccc:	10803fcc 	andi	r2,r2,255
  801cd0:	1080201c 	xori	r2,r2,128
  801cd4:	10bfe004 	addi	r2,r2,-128
  801cd8:	10000326 	beq	r2,zero,801ce8 <logic+0x1a58>
    d->_Pacemaker_local__Atrig = 1;
  801cdc:	e0bffd17 	ldw	r2,-12(fp)
  801ce0:	00c00044 	movi	r3,1
  801ce4:	10c00905 	stb	r3,36(r2)
  }
  d->_g53_e2 = d->_g83_e5 && !d->_cg36;
  801ce8:	e0bffd17 	ldw	r2,-12(fp)
  801cec:	10802a43 	ldbu	r2,169(r2)
  801cf0:	10803fcc 	andi	r2,r2,255
  801cf4:	1080201c 	xori	r2,r2,128
  801cf8:	10bfe004 	addi	r2,r2,-128
  801cfc:	10000826 	beq	r2,zero,801d20 <logic+0x1a90>
  801d00:	e0bffd17 	ldw	r2,-12(fp)
  801d04:	10801f43 	ldbu	r2,125(r2)
  801d08:	10803fcc 	andi	r2,r2,255
  801d0c:	1080201c 	xori	r2,r2,128
  801d10:	10bfe004 	addi	r2,r2,-128
  801d14:	1000021e 	bne	r2,zero,801d20 <logic+0x1a90>
  801d18:	00800044 	movi	r2,1
  801d1c:	00000106 	br	801d24 <logic+0x1a94>
  801d20:	0005883a 	mov	r2,zero
  801d24:	1007883a 	mov	r3,r2
  801d28:	e0bffd17 	ldw	r2,-12(fp)
  801d2c:	10c02985 	stb	r3,166(r2)
  d->_cg39 = d->_region0_Atrium_VentricleTimer >= AEI_VALUE;
  801d30:	e13ffd17 	ldw	r4,-12(fp)
  801d34:	20800017 	ldw	r2,0(r4)
  801d38:	20c00117 	ldw	r3,4(r4)
  801d3c:	04000044 	movi	r16,1
  801d40:	000d883a 	mov	r6,zero
  801d44:	01d02274 	movhi	r7,16521
  801d48:	1009883a 	mov	r4,r2
  801d4c:	180b883a 	mov	r5,r3
  801d50:	08052340 	call	805234 <__gedf2>
  801d54:	1000010e 	bge	r2,zero,801d5c <logic+0x1acc>
  801d58:	0021883a 	mov	r16,zero
  801d5c:	8007883a 	mov	r3,r16
  801d60:	e0bffd17 	ldw	r2,-12(fp)
  801d64:	10c01f05 	stb	r3,124(r2)
  d->_g90 = d->_g53_e2 && d->_cg39;
  801d68:	e0bffd17 	ldw	r2,-12(fp)
  801d6c:	10802983 	ldbu	r2,166(r2)
  801d70:	10803fcc 	andi	r2,r2,255
  801d74:	1080201c 	xori	r2,r2,128
  801d78:	10bfe004 	addi	r2,r2,-128
  801d7c:	10000826 	beq	r2,zero,801da0 <logic+0x1b10>
  801d80:	e0bffd17 	ldw	r2,-12(fp)
  801d84:	10801f03 	ldbu	r2,124(r2)
  801d88:	10803fcc 	andi	r2,r2,255
  801d8c:	1080201c 	xori	r2,r2,128
  801d90:	10bfe004 	addi	r2,r2,-128
  801d94:	10000226 	beq	r2,zero,801da0 <logic+0x1b10>
  801d98:	00800044 	movi	r2,1
  801d9c:	00000106 	br	801da4 <logic+0x1b14>
  801da0:	0005883a 	mov	r2,zero
  801da4:	1007883a 	mov	r3,r2
  801da8:	e0bffd17 	ldw	r2,-12(fp)
  801dac:	10c01705 	stb	r3,92(r2)
  if (d->_g90) {
  801db0:	e0bffd17 	ldw	r2,-12(fp)
  801db4:	10801703 	ldbu	r2,92(r2)
  801db8:	10803fcc 	andi	r2,r2,255
  801dbc:	1080201c 	xori	r2,r2,128
  801dc0:	10bfe004 	addi	r2,r2,-128
  801dc4:	10000326 	beq	r2,zero,801dd4 <logic+0x1b44>
    d->_Pacemaker_local__Atrig1 = 1;
  801dc8:	e0bffd17 	ldw	r2,-12(fp)
  801dcc:	00c00044 	movi	r3,1
  801dd0:	10c00945 	stb	r3,37(r2)
  }
  d->_cg6 = d->_Pacemaker_local__Atrig || d->_Pacemaker_local__Atrig1;
  801dd4:	e0bffd17 	ldw	r2,-12(fp)
  801dd8:	10800903 	ldbu	r2,36(r2)
  801ddc:	10803fcc 	andi	r2,r2,255
  801de0:	1080201c 	xori	r2,r2,128
  801de4:	10bfe004 	addi	r2,r2,-128
  801de8:	1000061e 	bne	r2,zero,801e04 <logic+0x1b74>
  801dec:	e0bffd17 	ldw	r2,-12(fp)
  801df0:	10800943 	ldbu	r2,37(r2)
  801df4:	10803fcc 	andi	r2,r2,255
  801df8:	1080201c 	xori	r2,r2,128
  801dfc:	10bfe004 	addi	r2,r2,-128
  801e00:	10000226 	beq	r2,zero,801e0c <logic+0x1b7c>
  801e04:	00800044 	movi	r2,1
  801e08:	00000106 	br	801e10 <logic+0x1b80>
  801e0c:	0005883a 	mov	r2,zero
  801e10:	1007883a 	mov	r3,r2
  801e14:	e0bffd17 	ldw	r2,-12(fp)
  801e18:	10c01b45 	stb	r3,109(r2)
  d->_g99_e7 = d->_g53 && !d->_cg4 || d->_g75 && !d->_cg6;
  801e1c:	e0bffd17 	ldw	r2,-12(fp)
  801e20:	108012c3 	ldbu	r2,75(r2)
  801e24:	10803fcc 	andi	r2,r2,255
  801e28:	1080201c 	xori	r2,r2,128
  801e2c:	10bfe004 	addi	r2,r2,-128
  801e30:	10000626 	beq	r2,zero,801e4c <logic+0x1bbc>
  801e34:	e0bffd17 	ldw	r2,-12(fp)
  801e38:	10801b03 	ldbu	r2,108(r2)
  801e3c:	10803fcc 	andi	r2,r2,255
  801e40:	1080201c 	xori	r2,r2,128
  801e44:	10bfe004 	addi	r2,r2,-128
  801e48:	10000c26 	beq	r2,zero,801e7c <logic+0x1bec>
  801e4c:	e0bffd17 	ldw	r2,-12(fp)
  801e50:	10801583 	ldbu	r2,86(r2)
  801e54:	10803fcc 	andi	r2,r2,255
  801e58:	1080201c 	xori	r2,r2,128
  801e5c:	10bfe004 	addi	r2,r2,-128
  801e60:	10000826 	beq	r2,zero,801e84 <logic+0x1bf4>
  801e64:	e0bffd17 	ldw	r2,-12(fp)
  801e68:	10801b43 	ldbu	r2,109(r2)
  801e6c:	10803fcc 	andi	r2,r2,255
  801e70:	1080201c 	xori	r2,r2,128
  801e74:	10bfe004 	addi	r2,r2,-128
  801e78:	1000021e 	bne	r2,zero,801e84 <logic+0x1bf4>
  801e7c:	00800044 	movi	r2,1
  801e80:	00000106 	br	801e88 <logic+0x1bf8>
  801e84:	0005883a 	mov	r2,zero
  801e88:	1007883a 	mov	r3,r2
  801e8c:	e0bffd17 	ldw	r2,-12(fp)
  801e90:	10c02ac5 	stb	r3,171(r2)
  d->_g75_e4 = d->_g75 && d->_cg6;
  801e94:	e0bffd17 	ldw	r2,-12(fp)
  801e98:	10801583 	ldbu	r2,86(r2)
  801e9c:	10803fcc 	andi	r2,r2,255
  801ea0:	1080201c 	xori	r2,r2,128
  801ea4:	10bfe004 	addi	r2,r2,-128
  801ea8:	10000826 	beq	r2,zero,801ecc <logic+0x1c3c>
  801eac:	e0bffd17 	ldw	r2,-12(fp)
  801eb0:	10801b43 	ldbu	r2,109(r2)
  801eb4:	10803fcc 	andi	r2,r2,255
  801eb8:	1080201c 	xori	r2,r2,128
  801ebc:	10bfe004 	addi	r2,r2,-128
  801ec0:	10000226 	beq	r2,zero,801ecc <logic+0x1c3c>
  801ec4:	00800044 	movi	r2,1
  801ec8:	00000106 	br	801ed0 <logic+0x1c40>
  801ecc:	0005883a 	mov	r2,zero
  801ed0:	1007883a 	mov	r3,r2
  801ed4:	e0bffd17 	ldw	r2,-12(fp)
  801ed8:	10c02a05 	stb	r3,168(r2)
  d->_cg8 = d->_region0_Atrium_VentricleTimer < PVARP_VALUE;
  801edc:	e13ffd17 	ldw	r4,-12(fp)
  801ee0:	20800017 	ldw	r2,0(r4)
  801ee4:	20c00117 	ldw	r3,4(r4)
  801ee8:	04000044 	movi	r16,1
  801eec:	000d883a 	mov	r6,zero
  801ef0:	01d01274 	movhi	r7,16457
  801ef4:	1009883a 	mov	r4,r2
  801ef8:	180b883a 	mov	r5,r3
  801efc:	08053100 	call	805310 <__ledf2>
  801f00:	10000116 	blt	r2,zero,801f08 <logic+0x1c78>
  801f04:	0021883a 	mov	r16,zero
  801f08:	8007883a 	mov	r3,r16
  801f0c:	e0bffd17 	ldw	r2,-12(fp)
  801f10:	10c01b85 	stb	r3,110(r2)
  d->_g90_e6 = d->_g53 && d->_cg8;
  801f14:	e0bffd17 	ldw	r2,-12(fp)
  801f18:	108012c3 	ldbu	r2,75(r2)
  801f1c:	10803fcc 	andi	r2,r2,255
  801f20:	1080201c 	xori	r2,r2,128
  801f24:	10bfe004 	addi	r2,r2,-128
  801f28:	10000826 	beq	r2,zero,801f4c <logic+0x1cbc>
  801f2c:	e0bffd17 	ldw	r2,-12(fp)
  801f30:	10801b83 	ldbu	r2,110(r2)
  801f34:	10803fcc 	andi	r2,r2,255
  801f38:	1080201c 	xori	r2,r2,128
  801f3c:	10bfe004 	addi	r2,r2,-128
  801f40:	10000226 	beq	r2,zero,801f4c <logic+0x1cbc>
  801f44:	00800044 	movi	r2,1
  801f48:	00000106 	br	801f50 <logic+0x1cc0>
  801f4c:	0005883a 	mov	r2,zero
  801f50:	1007883a 	mov	r3,r2
  801f54:	e0bffd17 	ldw	r2,-12(fp)
  801f58:	10c02a85 	stb	r3,170(r2)
  if (d->_g90_e6) {
  801f5c:	e0bffd17 	ldw	r2,-12(fp)
  801f60:	10802a83 	ldbu	r2,170(r2)
  801f64:	10803fcc 	andi	r2,r2,255
  801f68:	1080201c 	xori	r2,r2,128
  801f6c:	10bfe004 	addi	r2,r2,-128
  801f70:	10002826 	beq	r2,zero,802014 <logic+0x1d84>
    d->sleepT = (d->sleepT < (PVARP_VALUE - d->_region0_Atrium_VentricleTimer)) ? d->sleepT : (PVARP_VALUE - d->_region0_Atrium_VentricleTimer);
  801f74:	e0bffd17 	ldw	r2,-12(fp)
  801f78:	14000617 	ldw	r16,24(r2)
  801f7c:	14400717 	ldw	r17,28(r2)
  801f80:	e13ffd17 	ldw	r4,-12(fp)
  801f84:	20800017 	ldw	r2,0(r4)
  801f88:	20c00117 	ldw	r3,4(r4)
  801f8c:	100d883a 	mov	r6,r2
  801f90:	180f883a 	mov	r7,r3
  801f94:	0009883a 	mov	r4,zero
  801f98:	01501274 	movhi	r5,16457
  801f9c:	0805b1c0 	call	805b1c <__subdf3>
  801fa0:	1009883a 	mov	r4,r2
  801fa4:	180b883a 	mov	r5,r3
  801fa8:	2005883a 	mov	r2,r4
  801fac:	2807883a 	mov	r3,r5
  801fb0:	100d883a 	mov	r6,r2
  801fb4:	180f883a 	mov	r7,r3
  801fb8:	8009883a 	mov	r4,r16
  801fbc:	880b883a 	mov	r5,r17
  801fc0:	08053100 	call	805310 <__ledf2>
  801fc4:	1000040e 	bge	r2,zero,801fd8 <logic+0x1d48>
  801fc8:	e13ffd17 	ldw	r4,-12(fp)
  801fcc:	20800617 	ldw	r2,24(r4)
  801fd0:	20c00717 	ldw	r3,28(r4)
  801fd4:	00000c06 	br	802008 <logic+0x1d78>
  801fd8:	e13ffd17 	ldw	r4,-12(fp)
  801fdc:	20800017 	ldw	r2,0(r4)
  801fe0:	20c00117 	ldw	r3,4(r4)
  801fe4:	100d883a 	mov	r6,r2
  801fe8:	180f883a 	mov	r7,r3
  801fec:	0009883a 	mov	r4,zero
  801ff0:	01501274 	movhi	r5,16457
  801ff4:	0805b1c0 	call	805b1c <__subdf3>
  801ff8:	1009883a 	mov	r4,r2
  801ffc:	180b883a 	mov	r5,r3
  802000:	2005883a 	mov	r2,r4
  802004:	2807883a 	mov	r3,r5
  802008:	e13ffd17 	ldw	r4,-12(fp)
  80200c:	20800615 	stw	r2,24(r4)
  802010:	20c00715 	stw	r3,28(r4)
  }
  d->_cg9 = d->_Pacemaker_local__Atrig || d->_Pacemaker_local__Atrig1;
  802014:	e0bffd17 	ldw	r2,-12(fp)
  802018:	10800903 	ldbu	r2,36(r2)
  80201c:	10803fcc 	andi	r2,r2,255
  802020:	1080201c 	xori	r2,r2,128
  802024:	10bfe004 	addi	r2,r2,-128
  802028:	1000061e 	bne	r2,zero,802044 <logic+0x1db4>
  80202c:	e0bffd17 	ldw	r2,-12(fp)
  802030:	10800943 	ldbu	r2,37(r2)
  802034:	10803fcc 	andi	r2,r2,255
  802038:	1080201c 	xori	r2,r2,128
  80203c:	10bfe004 	addi	r2,r2,-128
  802040:	10000226 	beq	r2,zero,80204c <logic+0x1dbc>
  802044:	00800044 	movi	r2,1
  802048:	00000106 	br	802050 <logic+0x1dc0>
  80204c:	0005883a 	mov	r2,zero
  802050:	1007883a 	mov	r3,r2
  802054:	e0bffd17 	ldw	r2,-12(fp)
  802058:	10c01bc5 	stb	r3,111(r2)
  d->_g118 = d->_pg108;
  80205c:	e0bffd17 	ldw	r2,-12(fp)
  802060:	10c02ec3 	ldbu	r3,187(r2)
  802064:	e0bffd17 	ldw	r2,-12(fp)
  802068:	10c01a85 	stb	r3,106(r2)
  d->_g106 = d->_pg13;
  80206c:	e0bffd17 	ldw	r2,-12(fp)
  802070:	10c02f03 	ldbu	r3,188(r2)
  802074:	e0bffd17 	ldw	r2,-12(fp)
  802078:	10c01985 	stb	r3,102(r2)
  d->_g107 = d->_g118 || d->_g106;
  80207c:	e0bffd17 	ldw	r2,-12(fp)
  802080:	10801a83 	ldbu	r2,106(r2)
  802084:	10803fcc 	andi	r2,r2,255
  802088:	1080201c 	xori	r2,r2,128
  80208c:	10bfe004 	addi	r2,r2,-128
  802090:	1000061e 	bne	r2,zero,8020ac <logic+0x1e1c>
  802094:	e0bffd17 	ldw	r2,-12(fp)
  802098:	10801983 	ldbu	r2,102(r2)
  80209c:	10803fcc 	andi	r2,r2,255
  8020a0:	1080201c 	xori	r2,r2,128
  8020a4:	10bfe004 	addi	r2,r2,-128
  8020a8:	10000226 	beq	r2,zero,8020b4 <logic+0x1e24>
  8020ac:	00800044 	movi	r2,1
  8020b0:	00000106 	br	8020b8 <logic+0x1e28>
  8020b4:	0005883a 	mov	r2,zero
  8020b8:	1007883a 	mov	r3,r2
  8020bc:	e0bffd17 	ldw	r2,-12(fp)
  8020c0:	10c019c5 	stb	r3,103(r2)
  d->_cg12 = d->_region0_Atrium_VentricleTimer < PVARP_VALUE;
  8020c4:	e13ffd17 	ldw	r4,-12(fp)
  8020c8:	20800017 	ldw	r2,0(r4)
  8020cc:	20c00117 	ldw	r3,4(r4)
  8020d0:	04000044 	movi	r16,1
  8020d4:	000d883a 	mov	r6,zero
  8020d8:	01d01274 	movhi	r7,16457
  8020dc:	1009883a 	mov	r4,r2
  8020e0:	180b883a 	mov	r5,r3
  8020e4:	08053100 	call	805310 <__ledf2>
  8020e8:	10000116 	blt	r2,zero,8020f0 <logic+0x1e60>
  8020ec:	0021883a 	mov	r16,zero
  8020f0:	8007883a 	mov	r3,r16
  8020f4:	e0bffd17 	ldw	r2,-12(fp)
  8020f8:	10c01c45 	stb	r3,113(r2)
  d->_g104 = d->_g107 && d->_cg12;
  8020fc:	e0bffd17 	ldw	r2,-12(fp)
  802100:	108019c3 	ldbu	r2,103(r2)
  802104:	10803fcc 	andi	r2,r2,255
  802108:	1080201c 	xori	r2,r2,128
  80210c:	10bfe004 	addi	r2,r2,-128
  802110:	10000826 	beq	r2,zero,802134 <logic+0x1ea4>
  802114:	e0bffd17 	ldw	r2,-12(fp)
  802118:	10801c43 	ldbu	r2,113(r2)
  80211c:	10803fcc 	andi	r2,r2,255
  802120:	1080201c 	xori	r2,r2,128
  802124:	10bfe004 	addi	r2,r2,-128
  802128:	10000226 	beq	r2,zero,802134 <logic+0x1ea4>
  80212c:	00800044 	movi	r2,1
  802130:	00000106 	br	802138 <logic+0x1ea8>
  802134:	0005883a 	mov	r2,zero
  802138:	1007883a 	mov	r3,r2
  80213c:	e0bffd17 	ldw	r2,-12(fp)
  802140:	10c01905 	stb	r3,100(r2)
  if (d->_g104) {
  802144:	e0bffd17 	ldw	r2,-12(fp)
  802148:	10801903 	ldbu	r2,100(r2)
  80214c:	10803fcc 	andi	r2,r2,255
  802150:	1080201c 	xori	r2,r2,128
  802154:	10bfe004 	addi	r2,r2,-128
  802158:	10002826 	beq	r2,zero,8021fc <logic+0x1f6c>
    d->sleepT = (d->sleepT < (PVARP_VALUE - d->_region0_Atrium_VentricleTimer)) ? d->sleepT : (PVARP_VALUE - d->_region0_Atrium_VentricleTimer);
  80215c:	e0bffd17 	ldw	r2,-12(fp)
  802160:	14000617 	ldw	r16,24(r2)
  802164:	14400717 	ldw	r17,28(r2)
  802168:	e13ffd17 	ldw	r4,-12(fp)
  80216c:	20800017 	ldw	r2,0(r4)
  802170:	20c00117 	ldw	r3,4(r4)
  802174:	100d883a 	mov	r6,r2
  802178:	180f883a 	mov	r7,r3
  80217c:	0009883a 	mov	r4,zero
  802180:	01501274 	movhi	r5,16457
  802184:	0805b1c0 	call	805b1c <__subdf3>
  802188:	1009883a 	mov	r4,r2
  80218c:	180b883a 	mov	r5,r3
  802190:	2005883a 	mov	r2,r4
  802194:	2807883a 	mov	r3,r5
  802198:	100d883a 	mov	r6,r2
  80219c:	180f883a 	mov	r7,r3
  8021a0:	8009883a 	mov	r4,r16
  8021a4:	880b883a 	mov	r5,r17
  8021a8:	08053100 	call	805310 <__ledf2>
  8021ac:	1000040e 	bge	r2,zero,8021c0 <logic+0x1f30>
  8021b0:	e13ffd17 	ldw	r4,-12(fp)
  8021b4:	20800617 	ldw	r2,24(r4)
  8021b8:	20c00717 	ldw	r3,28(r4)
  8021bc:	00000c06 	br	8021f0 <logic+0x1f60>
  8021c0:	e13ffd17 	ldw	r4,-12(fp)
  8021c4:	20800017 	ldw	r2,0(r4)
  8021c8:	20c00117 	ldw	r3,4(r4)
  8021cc:	100d883a 	mov	r6,r2
  8021d0:	180f883a 	mov	r7,r3
  8021d4:	0009883a 	mov	r4,zero
  8021d8:	01501274 	movhi	r5,16457
  8021dc:	0805b1c0 	call	805b1c <__subdf3>
  8021e0:	1009883a 	mov	r4,r2
  8021e4:	180b883a 	mov	r5,r3
  8021e8:	2005883a 	mov	r2,r4
  8021ec:	2807883a 	mov	r3,r5
  8021f0:	e13ffd17 	ldw	r4,-12(fp)
  8021f4:	20800615 	stw	r2,24(r4)
  8021f8:	20c00715 	stw	r3,28(r4)
  }
  d->_cg13 = d->_Pacemaker_local__Atrig || d->_Pacemaker_local__Atrig1;
  8021fc:	e0bffd17 	ldw	r2,-12(fp)
  802200:	10800903 	ldbu	r2,36(r2)
  802204:	10803fcc 	andi	r2,r2,255
  802208:	1080201c 	xori	r2,r2,128
  80220c:	10bfe004 	addi	r2,r2,-128
  802210:	1000061e 	bne	r2,zero,80222c <logic+0x1f9c>
  802214:	e0bffd17 	ldw	r2,-12(fp)
  802218:	10800943 	ldbu	r2,37(r2)
  80221c:	10803fcc 	andi	r2,r2,255
  802220:	1080201c 	xori	r2,r2,128
  802224:	10bfe004 	addi	r2,r2,-128
  802228:	10000226 	beq	r2,zero,802234 <logic+0x1fa4>
  80222c:	00800044 	movi	r2,1
  802230:	00000106 	br	802238 <logic+0x1fa8>
  802234:	0005883a 	mov	r2,zero
  802238:	1007883a 	mov	r3,r2
  80223c:	e0bffd17 	ldw	r2,-12(fp)
  802240:	10c01c05 	stb	r3,112(r2)
  d->_g108 = d->_g90_e6 && !d->_cg9 || d->_g104 && !d->_cg13;
  802244:	e0bffd17 	ldw	r2,-12(fp)
  802248:	10802a83 	ldbu	r2,170(r2)
  80224c:	10803fcc 	andi	r2,r2,255
  802250:	1080201c 	xori	r2,r2,128
  802254:	10bfe004 	addi	r2,r2,-128
  802258:	10000626 	beq	r2,zero,802274 <logic+0x1fe4>
  80225c:	e0bffd17 	ldw	r2,-12(fp)
  802260:	10801bc3 	ldbu	r2,111(r2)
  802264:	10803fcc 	andi	r2,r2,255
  802268:	1080201c 	xori	r2,r2,128
  80226c:	10bfe004 	addi	r2,r2,-128
  802270:	10000c26 	beq	r2,zero,8022a4 <logic+0x2014>
  802274:	e0bffd17 	ldw	r2,-12(fp)
  802278:	10801903 	ldbu	r2,100(r2)
  80227c:	10803fcc 	andi	r2,r2,255
  802280:	1080201c 	xori	r2,r2,128
  802284:	10bfe004 	addi	r2,r2,-128
  802288:	10000826 	beq	r2,zero,8022ac <logic+0x201c>
  80228c:	e0bffd17 	ldw	r2,-12(fp)
  802290:	10801c03 	ldbu	r2,112(r2)
  802294:	10803fcc 	andi	r2,r2,255
  802298:	1080201c 	xori	r2,r2,128
  80229c:	10bfe004 	addi	r2,r2,-128
  8022a0:	1000021e 	bne	r2,zero,8022ac <logic+0x201c>
  8022a4:	00800044 	movi	r2,1
  8022a8:	00000106 	br	8022b0 <logic+0x2020>
  8022ac:	0005883a 	mov	r2,zero
  8022b0:	1007883a 	mov	r3,r2
  8022b4:	e0bffd17 	ldw	r2,-12(fp)
  8022b8:	10c01a05 	stb	r3,104(r2)
  d->_g105 = d->_g107 && !d->_cg12;
  8022bc:	e0bffd17 	ldw	r2,-12(fp)
  8022c0:	108019c3 	ldbu	r2,103(r2)
  8022c4:	10803fcc 	andi	r2,r2,255
  8022c8:	1080201c 	xori	r2,r2,128
  8022cc:	10bfe004 	addi	r2,r2,-128
  8022d0:	10000826 	beq	r2,zero,8022f4 <logic+0x2064>
  8022d4:	e0bffd17 	ldw	r2,-12(fp)
  8022d8:	10801c43 	ldbu	r2,113(r2)
  8022dc:	10803fcc 	andi	r2,r2,255
  8022e0:	1080201c 	xori	r2,r2,128
  8022e4:	10bfe004 	addi	r2,r2,-128
  8022e8:	1000021e 	bne	r2,zero,8022f4 <logic+0x2064>
  8022ec:	00800044 	movi	r2,1
  8022f0:	00000106 	br	8022f8 <logic+0x2068>
  8022f4:	0005883a 	mov	r2,zero
  8022f8:	1007883a 	mov	r3,r2
  8022fc:	e0bffd17 	ldw	r2,-12(fp)
  802300:	10c01945 	stb	r3,101(r2)
  d->_cg15 = d->_Pacemaker_local__Atrig || d->_Pacemaker_local__Atrig1;
  802304:	e0bffd17 	ldw	r2,-12(fp)
  802308:	10800903 	ldbu	r2,36(r2)
  80230c:	10803fcc 	andi	r2,r2,255
  802310:	1080201c 	xori	r2,r2,128
  802314:	10bfe004 	addi	r2,r2,-128
  802318:	1000061e 	bne	r2,zero,802334 <logic+0x20a4>
  80231c:	e0bffd17 	ldw	r2,-12(fp)
  802320:	10800943 	ldbu	r2,37(r2)
  802324:	10803fcc 	andi	r2,r2,255
  802328:	1080201c 	xori	r2,r2,128
  80232c:	10bfe004 	addi	r2,r2,-128
  802330:	10000226 	beq	r2,zero,80233c <logic+0x20ac>
  802334:	00800044 	movi	r2,1
  802338:	00000106 	br	802340 <logic+0x20b0>
  80233c:	0005883a 	mov	r2,zero
  802340:	1007883a 	mov	r3,r2
  802344:	e0bffd17 	ldw	r2,-12(fp)
  802348:	10c01c85 	stb	r3,114(r2)
  d->_g9 = d->_g104 && d->_cg13 || d->_g105 && d->_cg15;
  80234c:	e0bffd17 	ldw	r2,-12(fp)
  802350:	10801903 	ldbu	r2,100(r2)
  802354:	10803fcc 	andi	r2,r2,255
  802358:	1080201c 	xori	r2,r2,128
  80235c:	10bfe004 	addi	r2,r2,-128
  802360:	10000626 	beq	r2,zero,80237c <logic+0x20ec>
  802364:	e0bffd17 	ldw	r2,-12(fp)
  802368:	10801c03 	ldbu	r2,112(r2)
  80236c:	10803fcc 	andi	r2,r2,255
  802370:	1080201c 	xori	r2,r2,128
  802374:	10bfe004 	addi	r2,r2,-128
  802378:	10000c1e 	bne	r2,zero,8023ac <logic+0x211c>
  80237c:	e0bffd17 	ldw	r2,-12(fp)
  802380:	10801943 	ldbu	r2,101(r2)
  802384:	10803fcc 	andi	r2,r2,255
  802388:	1080201c 	xori	r2,r2,128
  80238c:	10bfe004 	addi	r2,r2,-128
  802390:	10000826 	beq	r2,zero,8023b4 <logic+0x2124>
  802394:	e0bffd17 	ldw	r2,-12(fp)
  802398:	10801c83 	ldbu	r2,114(r2)
  80239c:	10803fcc 	andi	r2,r2,255
  8023a0:	1080201c 	xori	r2,r2,128
  8023a4:	10bfe004 	addi	r2,r2,-128
  8023a8:	10000226 	beq	r2,zero,8023b4 <logic+0x2124>
  8023ac:	00800044 	movi	r2,1
  8023b0:	00000106 	br	8023b8 <logic+0x2128>
  8023b4:	0005883a 	mov	r2,zero
  8023b8:	1007883a 	mov	r3,r2
  8023bc:	e0bffd17 	ldw	r2,-12(fp)
  8023c0:	10c00b05 	stb	r3,44(r2)
  d->_g12 = d->_g53 && !d->_cg8;
  8023c4:	e0bffd17 	ldw	r2,-12(fp)
  8023c8:	108012c3 	ldbu	r2,75(r2)
  8023cc:	10803fcc 	andi	r2,r2,255
  8023d0:	1080201c 	xori	r2,r2,128
  8023d4:	10bfe004 	addi	r2,r2,-128
  8023d8:	10000826 	beq	r2,zero,8023fc <logic+0x216c>
  8023dc:	e0bffd17 	ldw	r2,-12(fp)
  8023e0:	10801b83 	ldbu	r2,110(r2)
  8023e4:	10803fcc 	andi	r2,r2,255
  8023e8:	1080201c 	xori	r2,r2,128
  8023ec:	10bfe004 	addi	r2,r2,-128
  8023f0:	1000021e 	bne	r2,zero,8023fc <logic+0x216c>
  8023f4:	00800044 	movi	r2,1
  8023f8:	00000106 	br	802400 <logic+0x2170>
  8023fc:	0005883a 	mov	r2,zero
  802400:	1007883a 	mov	r3,r2
  802404:	e0bffd17 	ldw	r2,-12(fp)
  802408:	10c00b85 	stb	r3,46(r2)
  d->_cg18 = d->_Pacemaker_local__Atrig || d->_Pacemaker_local__Atrig1;
  80240c:	e0bffd17 	ldw	r2,-12(fp)
  802410:	10800903 	ldbu	r2,36(r2)
  802414:	10803fcc 	andi	r2,r2,255
  802418:	1080201c 	xori	r2,r2,128
  80241c:	10bfe004 	addi	r2,r2,-128
  802420:	1000061e 	bne	r2,zero,80243c <logic+0x21ac>
  802424:	e0bffd17 	ldw	r2,-12(fp)
  802428:	10800943 	ldbu	r2,37(r2)
  80242c:	10803fcc 	andi	r2,r2,255
  802430:	1080201c 	xori	r2,r2,128
  802434:	10bfe004 	addi	r2,r2,-128
  802438:	10000226 	beq	r2,zero,802444 <logic+0x21b4>
  80243c:	00800044 	movi	r2,1
  802440:	00000106 	br	802448 <logic+0x21b8>
  802444:	0005883a 	mov	r2,zero
  802448:	1007883a 	mov	r3,r2
  80244c:	e0bffd17 	ldw	r2,-12(fp)
  802450:	10c01cc5 	stb	r3,115(r2)
  d->_g13 = d->_g105 && !d->_cg15 || d->_g12 && !d->_cg18;
  802454:	e0bffd17 	ldw	r2,-12(fp)
  802458:	10801943 	ldbu	r2,101(r2)
  80245c:	10803fcc 	andi	r2,r2,255
  802460:	1080201c 	xori	r2,r2,128
  802464:	10bfe004 	addi	r2,r2,-128
  802468:	10000626 	beq	r2,zero,802484 <logic+0x21f4>
  80246c:	e0bffd17 	ldw	r2,-12(fp)
  802470:	10801c83 	ldbu	r2,114(r2)
  802474:	10803fcc 	andi	r2,r2,255
  802478:	1080201c 	xori	r2,r2,128
  80247c:	10bfe004 	addi	r2,r2,-128
  802480:	10000c26 	beq	r2,zero,8024b4 <logic+0x2224>
  802484:	e0bffd17 	ldw	r2,-12(fp)
  802488:	10800b83 	ldbu	r2,46(r2)
  80248c:	10803fcc 	andi	r2,r2,255
  802490:	1080201c 	xori	r2,r2,128
  802494:	10bfe004 	addi	r2,r2,-128
  802498:	10000826 	beq	r2,zero,8024bc <logic+0x222c>
  80249c:	e0bffd17 	ldw	r2,-12(fp)
  8024a0:	10801cc3 	ldbu	r2,115(r2)
  8024a4:	10803fcc 	andi	r2,r2,255
  8024a8:	1080201c 	xori	r2,r2,128
  8024ac:	10bfe004 	addi	r2,r2,-128
  8024b0:	1000021e 	bne	r2,zero,8024bc <logic+0x222c>
  8024b4:	00800044 	movi	r2,1
  8024b8:	00000106 	br	8024c0 <logic+0x2230>
  8024bc:	0005883a 	mov	r2,zero
  8024c0:	1007883a 	mov	r3,r2
  8024c4:	e0bffd17 	ldw	r2,-12(fp)
  8024c8:	10c00bc5 	stb	r3,47(r2)
  d->_cg19 = d->_region0_Atrium_VentricleTimer < AEI_VALUE;
  8024cc:	e13ffd17 	ldw	r4,-12(fp)
  8024d0:	20800017 	ldw	r2,0(r4)
  8024d4:	20c00117 	ldw	r3,4(r4)
  8024d8:	04000044 	movi	r16,1
  8024dc:	000d883a 	mov	r6,zero
  8024e0:	01d02274 	movhi	r7,16521
  8024e4:	1009883a 	mov	r4,r2
  8024e8:	180b883a 	mov	r5,r3
  8024ec:	08053100 	call	805310 <__ledf2>
  8024f0:	10000116 	blt	r2,zero,8024f8 <logic+0x2268>
  8024f4:	0021883a 	mov	r16,zero
  8024f8:	8007883a 	mov	r3,r16
  8024fc:	e0bffd17 	ldw	r2,-12(fp)
  802500:	10c01d05 	stb	r3,116(r2)
  d->_g15 = d->_g53 && d->_cg19;
  802504:	e0bffd17 	ldw	r2,-12(fp)
  802508:	108012c3 	ldbu	r2,75(r2)
  80250c:	10803fcc 	andi	r2,r2,255
  802510:	1080201c 	xori	r2,r2,128
  802514:	10bfe004 	addi	r2,r2,-128
  802518:	10000826 	beq	r2,zero,80253c <logic+0x22ac>
  80251c:	e0bffd17 	ldw	r2,-12(fp)
  802520:	10801d03 	ldbu	r2,116(r2)
  802524:	10803fcc 	andi	r2,r2,255
  802528:	1080201c 	xori	r2,r2,128
  80252c:	10bfe004 	addi	r2,r2,-128
  802530:	10000226 	beq	r2,zero,80253c <logic+0x22ac>
  802534:	00800044 	movi	r2,1
  802538:	00000106 	br	802540 <logic+0x22b0>
  80253c:	0005883a 	mov	r2,zero
  802540:	1007883a 	mov	r3,r2
  802544:	e0bffd17 	ldw	r2,-12(fp)
  802548:	10c00c45 	stb	r3,49(r2)
  if (d->_g15) {
  80254c:	e0bffd17 	ldw	r2,-12(fp)
  802550:	10800c43 	ldbu	r2,49(r2)
  802554:	10803fcc 	andi	r2,r2,255
  802558:	1080201c 	xori	r2,r2,128
  80255c:	10bfe004 	addi	r2,r2,-128
  802560:	10002826 	beq	r2,zero,802604 <logic+0x2374>
    d->sleepT = (d->sleepT < (AEI_VALUE - d->_region0_Atrium_VentricleTimer)) ? d->sleepT : (AEI_VALUE - d->_region0_Atrium_VentricleTimer);
  802564:	e0bffd17 	ldw	r2,-12(fp)
  802568:	14000617 	ldw	r16,24(r2)
  80256c:	14400717 	ldw	r17,28(r2)
  802570:	e13ffd17 	ldw	r4,-12(fp)
  802574:	20800017 	ldw	r2,0(r4)
  802578:	20c00117 	ldw	r3,4(r4)
  80257c:	100d883a 	mov	r6,r2
  802580:	180f883a 	mov	r7,r3
  802584:	0009883a 	mov	r4,zero
  802588:	01502274 	movhi	r5,16521
  80258c:	0805b1c0 	call	805b1c <__subdf3>
  802590:	1009883a 	mov	r4,r2
  802594:	180b883a 	mov	r5,r3
  802598:	2005883a 	mov	r2,r4
  80259c:	2807883a 	mov	r3,r5
  8025a0:	100d883a 	mov	r6,r2
  8025a4:	180f883a 	mov	r7,r3
  8025a8:	8009883a 	mov	r4,r16
  8025ac:	880b883a 	mov	r5,r17
  8025b0:	08053100 	call	805310 <__ledf2>
  8025b4:	1000040e 	bge	r2,zero,8025c8 <logic+0x2338>
  8025b8:	e13ffd17 	ldw	r4,-12(fp)
  8025bc:	20800617 	ldw	r2,24(r4)
  8025c0:	20c00717 	ldw	r3,28(r4)
  8025c4:	00000c06 	br	8025f8 <logic+0x2368>
  8025c8:	e13ffd17 	ldw	r4,-12(fp)
  8025cc:	20800017 	ldw	r2,0(r4)
  8025d0:	20c00117 	ldw	r3,4(r4)
  8025d4:	100d883a 	mov	r6,r2
  8025d8:	180f883a 	mov	r7,r3
  8025dc:	0009883a 	mov	r4,zero
  8025e0:	01502274 	movhi	r5,16521
  8025e4:	0805b1c0 	call	805b1c <__subdf3>
  8025e8:	1009883a 	mov	r4,r2
  8025ec:	180b883a 	mov	r5,r3
  8025f0:	2005883a 	mov	r2,r4
  8025f4:	2807883a 	mov	r3,r5
  8025f8:	e13ffd17 	ldw	r4,-12(fp)
  8025fc:	20800615 	stw	r2,24(r4)
  802600:	20c00715 	stw	r3,28(r4)
  }
  d->_cg20 = d->_Pacemaker_local__Atrig || d->_Pacemaker_local__Atrig1;
  802604:	e0bffd17 	ldw	r2,-12(fp)
  802608:	10800903 	ldbu	r2,36(r2)
  80260c:	10803fcc 	andi	r2,r2,255
  802610:	1080201c 	xori	r2,r2,128
  802614:	10bfe004 	addi	r2,r2,-128
  802618:	1000061e 	bne	r2,zero,802634 <logic+0x23a4>
  80261c:	e0bffd17 	ldw	r2,-12(fp)
  802620:	10800943 	ldbu	r2,37(r2)
  802624:	10803fcc 	andi	r2,r2,255
  802628:	1080201c 	xori	r2,r2,128
  80262c:	10bfe004 	addi	r2,r2,-128
  802630:	10000226 	beq	r2,zero,80263c <logic+0x23ac>
  802634:	00800044 	movi	r2,1
  802638:	00000106 	br	802640 <logic+0x23b0>
  80263c:	0005883a 	mov	r2,zero
  802640:	1007883a 	mov	r3,r2
  802644:	e0bffd17 	ldw	r2,-12(fp)
  802648:	10c01d45 	stb	r3,117(r2)
  d->_g18 = d->_pg20;
  80264c:	e0bffd17 	ldw	r2,-12(fp)
  802650:	10c02f43 	ldbu	r3,189(r2)
  802654:	e0bffd17 	ldw	r2,-12(fp)
  802658:	10c00cc5 	stb	r3,51(r2)
  d->_g28 = d->_pg26;
  80265c:	e0bffd17 	ldw	r2,-12(fp)
  802660:	10c02f83 	ldbu	r3,190(r2)
  802664:	e0bffd17 	ldw	r2,-12(fp)
  802668:	10c00e85 	stb	r3,58(r2)
  d->_g23 = d->_g18 || d->_g28;
  80266c:	e0bffd17 	ldw	r2,-12(fp)
  802670:	10800cc3 	ldbu	r2,51(r2)
  802674:	10803fcc 	andi	r2,r2,255
  802678:	1080201c 	xori	r2,r2,128
  80267c:	10bfe004 	addi	r2,r2,-128
  802680:	1000061e 	bne	r2,zero,80269c <logic+0x240c>
  802684:	e0bffd17 	ldw	r2,-12(fp)
  802688:	10800e83 	ldbu	r2,58(r2)
  80268c:	10803fcc 	andi	r2,r2,255
  802690:	1080201c 	xori	r2,r2,128
  802694:	10bfe004 	addi	r2,r2,-128
  802698:	10000226 	beq	r2,zero,8026a4 <logic+0x2414>
  80269c:	00800044 	movi	r2,1
  8026a0:	00000106 	br	8026a8 <logic+0x2418>
  8026a4:	0005883a 	mov	r2,zero
  8026a8:	1007883a 	mov	r3,r2
  8026ac:	e0bffd17 	ldw	r2,-12(fp)
  8026b0:	10c00d85 	stb	r3,54(r2)
  d->_cg23 = d->_region0_Atrium_VentricleTimer < AEI_VALUE;
  8026b4:	e13ffd17 	ldw	r4,-12(fp)
  8026b8:	20800017 	ldw	r2,0(r4)
  8026bc:	20c00117 	ldw	r3,4(r4)
  8026c0:	04000044 	movi	r16,1
  8026c4:	000d883a 	mov	r6,zero
  8026c8:	01d02274 	movhi	r7,16521
  8026cc:	1009883a 	mov	r4,r2
  8026d0:	180b883a 	mov	r5,r3
  8026d4:	08053100 	call	805310 <__ledf2>
  8026d8:	10000116 	blt	r2,zero,8026e0 <logic+0x2450>
  8026dc:	0021883a 	mov	r16,zero
  8026e0:	8007883a 	mov	r3,r16
  8026e4:	e0bffd17 	ldw	r2,-12(fp)
  8026e8:	10c01dc5 	stb	r3,119(r2)
  d->_g24 = d->_g23 && d->_cg23;
  8026ec:	e0bffd17 	ldw	r2,-12(fp)
  8026f0:	10800d83 	ldbu	r2,54(r2)
  8026f4:	10803fcc 	andi	r2,r2,255
  8026f8:	1080201c 	xori	r2,r2,128
  8026fc:	10bfe004 	addi	r2,r2,-128
  802700:	10000826 	beq	r2,zero,802724 <logic+0x2494>
  802704:	e0bffd17 	ldw	r2,-12(fp)
  802708:	10801dc3 	ldbu	r2,119(r2)
  80270c:	10803fcc 	andi	r2,r2,255
  802710:	1080201c 	xori	r2,r2,128
  802714:	10bfe004 	addi	r2,r2,-128
  802718:	10000226 	beq	r2,zero,802724 <logic+0x2494>
  80271c:	00800044 	movi	r2,1
  802720:	00000106 	br	802728 <logic+0x2498>
  802724:	0005883a 	mov	r2,zero
  802728:	1007883a 	mov	r3,r2
  80272c:	e0bffd17 	ldw	r2,-12(fp)
  802730:	10c00dc5 	stb	r3,55(r2)
  if (d->_g24) {
  802734:	e0bffd17 	ldw	r2,-12(fp)
  802738:	10800dc3 	ldbu	r2,55(r2)
  80273c:	10803fcc 	andi	r2,r2,255
  802740:	1080201c 	xori	r2,r2,128
  802744:	10bfe004 	addi	r2,r2,-128
  802748:	10002826 	beq	r2,zero,8027ec <logic+0x255c>
    d->sleepT = (d->sleepT < (AEI_VALUE - d->_region0_Atrium_VentricleTimer)) ? d->sleepT : (AEI_VALUE - d->_region0_Atrium_VentricleTimer);
  80274c:	e0bffd17 	ldw	r2,-12(fp)
  802750:	14000617 	ldw	r16,24(r2)
  802754:	14400717 	ldw	r17,28(r2)
  802758:	e13ffd17 	ldw	r4,-12(fp)
  80275c:	20800017 	ldw	r2,0(r4)
  802760:	20c00117 	ldw	r3,4(r4)
  802764:	100d883a 	mov	r6,r2
  802768:	180f883a 	mov	r7,r3
  80276c:	0009883a 	mov	r4,zero
  802770:	01502274 	movhi	r5,16521
  802774:	0805b1c0 	call	805b1c <__subdf3>
  802778:	1009883a 	mov	r4,r2
  80277c:	180b883a 	mov	r5,r3
  802780:	2005883a 	mov	r2,r4
  802784:	2807883a 	mov	r3,r5
  802788:	100d883a 	mov	r6,r2
  80278c:	180f883a 	mov	r7,r3
  802790:	8009883a 	mov	r4,r16
  802794:	880b883a 	mov	r5,r17
  802798:	08053100 	call	805310 <__ledf2>
  80279c:	1000040e 	bge	r2,zero,8027b0 <logic+0x2520>
  8027a0:	e13ffd17 	ldw	r4,-12(fp)
  8027a4:	20800617 	ldw	r2,24(r4)
  8027a8:	20c00717 	ldw	r3,28(r4)
  8027ac:	00000c06 	br	8027e0 <logic+0x2550>
  8027b0:	e13ffd17 	ldw	r4,-12(fp)
  8027b4:	20800017 	ldw	r2,0(r4)
  8027b8:	20c00117 	ldw	r3,4(r4)
  8027bc:	100d883a 	mov	r6,r2
  8027c0:	180f883a 	mov	r7,r3
  8027c4:	0009883a 	mov	r4,zero
  8027c8:	01502274 	movhi	r5,16521
  8027cc:	0805b1c0 	call	805b1c <__subdf3>
  8027d0:	1009883a 	mov	r4,r2
  8027d4:	180b883a 	mov	r5,r3
  8027d8:	2005883a 	mov	r2,r4
  8027dc:	2807883a 	mov	r3,r5
  8027e0:	e13ffd17 	ldw	r4,-12(fp)
  8027e4:	20800615 	stw	r2,24(r4)
  8027e8:	20c00715 	stw	r3,28(r4)
  }
  d->_cg24 = d->_Pacemaker_local__Atrig || d->_Pacemaker_local__Atrig1;
  8027ec:	e0bffd17 	ldw	r2,-12(fp)
  8027f0:	10800903 	ldbu	r2,36(r2)
  8027f4:	10803fcc 	andi	r2,r2,255
  8027f8:	1080201c 	xori	r2,r2,128
  8027fc:	10bfe004 	addi	r2,r2,-128
  802800:	1000061e 	bne	r2,zero,80281c <logic+0x258c>
  802804:	e0bffd17 	ldw	r2,-12(fp)
  802808:	10800943 	ldbu	r2,37(r2)
  80280c:	10803fcc 	andi	r2,r2,255
  802810:	1080201c 	xori	r2,r2,128
  802814:	10bfe004 	addi	r2,r2,-128
  802818:	10000226 	beq	r2,zero,802824 <logic+0x2594>
  80281c:	00800044 	movi	r2,1
  802820:	00000106 	br	802828 <logic+0x2598>
  802824:	0005883a 	mov	r2,zero
  802828:	1007883a 	mov	r3,r2
  80282c:	e0bffd17 	ldw	r2,-12(fp)
  802830:	10c01d85 	stb	r3,118(r2)
  d->_g20 = d->_g15 && !d->_cg20 || d->_g24 && !d->_cg24;
  802834:	e0bffd17 	ldw	r2,-12(fp)
  802838:	10800c43 	ldbu	r2,49(r2)
  80283c:	10803fcc 	andi	r2,r2,255
  802840:	1080201c 	xori	r2,r2,128
  802844:	10bfe004 	addi	r2,r2,-128
  802848:	10000626 	beq	r2,zero,802864 <logic+0x25d4>
  80284c:	e0bffd17 	ldw	r2,-12(fp)
  802850:	10801d43 	ldbu	r2,117(r2)
  802854:	10803fcc 	andi	r2,r2,255
  802858:	1080201c 	xori	r2,r2,128
  80285c:	10bfe004 	addi	r2,r2,-128
  802860:	10000c26 	beq	r2,zero,802894 <logic+0x2604>
  802864:	e0bffd17 	ldw	r2,-12(fp)
  802868:	10800dc3 	ldbu	r2,55(r2)
  80286c:	10803fcc 	andi	r2,r2,255
  802870:	1080201c 	xori	r2,r2,128
  802874:	10bfe004 	addi	r2,r2,-128
  802878:	10000826 	beq	r2,zero,80289c <logic+0x260c>
  80287c:	e0bffd17 	ldw	r2,-12(fp)
  802880:	10801d83 	ldbu	r2,118(r2)
  802884:	10803fcc 	andi	r2,r2,255
  802888:	1080201c 	xori	r2,r2,128
  80288c:	10bfe004 	addi	r2,r2,-128
  802890:	1000021e 	bne	r2,zero,80289c <logic+0x260c>
  802894:	00800044 	movi	r2,1
  802898:	00000106 	br	8028a0 <logic+0x2610>
  80289c:	0005883a 	mov	r2,zero
  8028a0:	1007883a 	mov	r3,r2
  8028a4:	e0bffd17 	ldw	r2,-12(fp)
  8028a8:	10c00d05 	stb	r3,52(r2)
  d->_g23 = d->_g23 && !d->_cg23;
  8028ac:	e0bffd17 	ldw	r2,-12(fp)
  8028b0:	10800d83 	ldbu	r2,54(r2)
  8028b4:	10803fcc 	andi	r2,r2,255
  8028b8:	1080201c 	xori	r2,r2,128
  8028bc:	10bfe004 	addi	r2,r2,-128
  8028c0:	10000826 	beq	r2,zero,8028e4 <logic+0x2654>
  8028c4:	e0bffd17 	ldw	r2,-12(fp)
  8028c8:	10801dc3 	ldbu	r2,119(r2)
  8028cc:	10803fcc 	andi	r2,r2,255
  8028d0:	1080201c 	xori	r2,r2,128
  8028d4:	10bfe004 	addi	r2,r2,-128
  8028d8:	1000021e 	bne	r2,zero,8028e4 <logic+0x2654>
  8028dc:	00800044 	movi	r2,1
  8028e0:	00000106 	br	8028e8 <logic+0x2658>
  8028e4:	0005883a 	mov	r2,zero
  8028e8:	1007883a 	mov	r3,r2
  8028ec:	e0bffd17 	ldw	r2,-12(fp)
  8028f0:	10c00d85 	stb	r3,54(r2)
  d->_cg26 = d->_Pacemaker_local__Atrig || d->_Pacemaker_local__Atrig1;
  8028f4:	e0bffd17 	ldw	r2,-12(fp)
  8028f8:	10800903 	ldbu	r2,36(r2)
  8028fc:	10803fcc 	andi	r2,r2,255
  802900:	1080201c 	xori	r2,r2,128
  802904:	10bfe004 	addi	r2,r2,-128
  802908:	1000061e 	bne	r2,zero,802924 <logic+0x2694>
  80290c:	e0bffd17 	ldw	r2,-12(fp)
  802910:	10800943 	ldbu	r2,37(r2)
  802914:	10803fcc 	andi	r2,r2,255
  802918:	1080201c 	xori	r2,r2,128
  80291c:	10bfe004 	addi	r2,r2,-128
  802920:	10000226 	beq	r2,zero,80292c <logic+0x269c>
  802924:	00800044 	movi	r2,1
  802928:	00000106 	br	802930 <logic+0x26a0>
  80292c:	0005883a 	mov	r2,zero
  802930:	1007883a 	mov	r3,r2
  802934:	e0bffd17 	ldw	r2,-12(fp)
  802938:	10c01e05 	stb	r3,120(r2)
  d->_g24 = d->_g24 && d->_cg24 || d->_g23 && d->_cg26;
  80293c:	e0bffd17 	ldw	r2,-12(fp)
  802940:	10800dc3 	ldbu	r2,55(r2)
  802944:	10803fcc 	andi	r2,r2,255
  802948:	1080201c 	xori	r2,r2,128
  80294c:	10bfe004 	addi	r2,r2,-128
  802950:	10000626 	beq	r2,zero,80296c <logic+0x26dc>
  802954:	e0bffd17 	ldw	r2,-12(fp)
  802958:	10801d83 	ldbu	r2,118(r2)
  80295c:	10803fcc 	andi	r2,r2,255
  802960:	1080201c 	xori	r2,r2,128
  802964:	10bfe004 	addi	r2,r2,-128
  802968:	10000c1e 	bne	r2,zero,80299c <logic+0x270c>
  80296c:	e0bffd17 	ldw	r2,-12(fp)
  802970:	10800d83 	ldbu	r2,54(r2)
  802974:	10803fcc 	andi	r2,r2,255
  802978:	1080201c 	xori	r2,r2,128
  80297c:	10bfe004 	addi	r2,r2,-128
  802980:	10000826 	beq	r2,zero,8029a4 <logic+0x2714>
  802984:	e0bffd17 	ldw	r2,-12(fp)
  802988:	10801e03 	ldbu	r2,120(r2)
  80298c:	10803fcc 	andi	r2,r2,255
  802990:	1080201c 	xori	r2,r2,128
  802994:	10bfe004 	addi	r2,r2,-128
  802998:	10000226 	beq	r2,zero,8029a4 <logic+0x2714>
  80299c:	00800044 	movi	r2,1
  8029a0:	00000106 	br	8029a8 <logic+0x2718>
  8029a4:	0005883a 	mov	r2,zero
  8029a8:	1007883a 	mov	r3,r2
  8029ac:	e0bffd17 	ldw	r2,-12(fp)
  8029b0:	10c00dc5 	stb	r3,55(r2)
  d->_g29 = d->_g53 && !d->_cg19;
  8029b4:	e0bffd17 	ldw	r2,-12(fp)
  8029b8:	108012c3 	ldbu	r2,75(r2)
  8029bc:	10803fcc 	andi	r2,r2,255
  8029c0:	1080201c 	xori	r2,r2,128
  8029c4:	10bfe004 	addi	r2,r2,-128
  8029c8:	10000826 	beq	r2,zero,8029ec <logic+0x275c>
  8029cc:	e0bffd17 	ldw	r2,-12(fp)
  8029d0:	10801d03 	ldbu	r2,116(r2)
  8029d4:	10803fcc 	andi	r2,r2,255
  8029d8:	1080201c 	xori	r2,r2,128
  8029dc:	10bfe004 	addi	r2,r2,-128
  8029e0:	1000021e 	bne	r2,zero,8029ec <logic+0x275c>
  8029e4:	00800044 	movi	r2,1
  8029e8:	00000106 	br	8029f0 <logic+0x2760>
  8029ec:	0005883a 	mov	r2,zero
  8029f0:	1007883a 	mov	r3,r2
  8029f4:	e0bffd17 	ldw	r2,-12(fp)
  8029f8:	10c00ec5 	stb	r3,59(r2)
  d->_cg29 = d->_Pacemaker_local__Atrig || d->_Pacemaker_local__Atrig1;
  8029fc:	e0bffd17 	ldw	r2,-12(fp)
  802a00:	10800903 	ldbu	r2,36(r2)
  802a04:	10803fcc 	andi	r2,r2,255
  802a08:	1080201c 	xori	r2,r2,128
  802a0c:	10bfe004 	addi	r2,r2,-128
  802a10:	1000061e 	bne	r2,zero,802a2c <logic+0x279c>
  802a14:	e0bffd17 	ldw	r2,-12(fp)
  802a18:	10800943 	ldbu	r2,37(r2)
  802a1c:	10803fcc 	andi	r2,r2,255
  802a20:	1080201c 	xori	r2,r2,128
  802a24:	10bfe004 	addi	r2,r2,-128
  802a28:	10000226 	beq	r2,zero,802a34 <logic+0x27a4>
  802a2c:	00800044 	movi	r2,1
  802a30:	00000106 	br	802a38 <logic+0x27a8>
  802a34:	0005883a 	mov	r2,zero
  802a38:	1007883a 	mov	r3,r2
  802a3c:	e0bffd17 	ldw	r2,-12(fp)
  802a40:	10c01e45 	stb	r3,121(r2)
  d->_g26 = d->_g23 && !d->_cg26 || d->_g29 && !d->_cg29;
  802a44:	e0bffd17 	ldw	r2,-12(fp)
  802a48:	10800d83 	ldbu	r2,54(r2)
  802a4c:	10803fcc 	andi	r2,r2,255
  802a50:	1080201c 	xori	r2,r2,128
  802a54:	10bfe004 	addi	r2,r2,-128
  802a58:	10000626 	beq	r2,zero,802a74 <logic+0x27e4>
  802a5c:	e0bffd17 	ldw	r2,-12(fp)
  802a60:	10801e03 	ldbu	r2,120(r2)
  802a64:	10803fcc 	andi	r2,r2,255
  802a68:	1080201c 	xori	r2,r2,128
  802a6c:	10bfe004 	addi	r2,r2,-128
  802a70:	10000c26 	beq	r2,zero,802aa4 <logic+0x2814>
  802a74:	e0bffd17 	ldw	r2,-12(fp)
  802a78:	10800ec3 	ldbu	r2,59(r2)
  802a7c:	10803fcc 	andi	r2,r2,255
  802a80:	1080201c 	xori	r2,r2,128
  802a84:	10bfe004 	addi	r2,r2,-128
  802a88:	10000826 	beq	r2,zero,802aac <logic+0x281c>
  802a8c:	e0bffd17 	ldw	r2,-12(fp)
  802a90:	10801e43 	ldbu	r2,121(r2)
  802a94:	10803fcc 	andi	r2,r2,255
  802a98:	1080201c 	xori	r2,r2,128
  802a9c:	10bfe004 	addi	r2,r2,-128
  802aa0:	1000021e 	bne	r2,zero,802aac <logic+0x281c>
  802aa4:	00800044 	movi	r2,1
  802aa8:	00000106 	br	802ab0 <logic+0x2820>
  802aac:	0005883a 	mov	r2,zero
  802ab0:	1007883a 	mov	r3,r2
  802ab4:	e0bffd17 	ldw	r2,-12(fp)
  802ab8:	10c00e45 	stb	r3,57(r2)
  d->_cg30 = d->_Pacemaker_local__Atrig || d->_Pacemaker_local__Atrig1;
  802abc:	e0bffd17 	ldw	r2,-12(fp)
  802ac0:	10800903 	ldbu	r2,36(r2)
  802ac4:	10803fcc 	andi	r2,r2,255
  802ac8:	1080201c 	xori	r2,r2,128
  802acc:	10bfe004 	addi	r2,r2,-128
  802ad0:	1000061e 	bne	r2,zero,802aec <logic+0x285c>
  802ad4:	e0bffd17 	ldw	r2,-12(fp)
  802ad8:	10800943 	ldbu	r2,37(r2)
  802adc:	10803fcc 	andi	r2,r2,255
  802ae0:	1080201c 	xori	r2,r2,128
  802ae4:	10bfe004 	addi	r2,r2,-128
  802ae8:	10000226 	beq	r2,zero,802af4 <logic+0x2864>
  802aec:	00800044 	movi	r2,1
  802af0:	00000106 	br	802af8 <logic+0x2868>
  802af4:	0005883a 	mov	r2,zero
  802af8:	1007883a 	mov	r3,r2
  802afc:	e0bffd17 	ldw	r2,-12(fp)
  802b00:	10c01e85 	stb	r3,122(r2)
  d->_g29 = d->_pg31;
  802b04:	e0bffd17 	ldw	r2,-12(fp)
  802b08:	10c02fc3 	ldbu	r3,191(r2)
  802b0c:	e0bffd17 	ldw	r2,-12(fp)
  802b10:	10c00ec5 	stb	r3,59(r2)
  if (d->_g29) {
  802b14:	e0bffd17 	ldw	r2,-12(fp)
  802b18:	10800ec3 	ldbu	r2,59(r2)
  802b1c:	10803fcc 	andi	r2,r2,255
  802b20:	1080201c 	xori	r2,r2,128
  802b24:	10bfe004 	addi	r2,r2,-128
  802b28:	10001226 	beq	r2,zero,802b74 <logic+0x28e4>
    d->_region0_Atrium_AtriumTimer += d->deltaT;
  802b2c:	e13ffd17 	ldw	r4,-12(fp)
  802b30:	20800217 	ldw	r2,8(r4)
  802b34:	20c00317 	ldw	r3,12(r4)
  802b38:	e1bffd17 	ldw	r6,-12(fp)
  802b3c:	31000417 	ldw	r4,16(r6)
  802b40:	31400517 	ldw	r5,20(r6)
  802b44:	200d883a 	mov	r6,r4
  802b48:	280f883a 	mov	r7,r5
  802b4c:	1009883a 	mov	r4,r2
  802b50:	180b883a 	mov	r5,r3
  802b54:	08049880 	call	804988 <__adddf3>
  802b58:	1009883a 	mov	r4,r2
  802b5c:	180b883a 	mov	r5,r3
  802b60:	2005883a 	mov	r2,r4
  802b64:	2807883a 	mov	r3,r5
  802b68:	e13ffd17 	ldw	r4,-12(fp)
  802b6c:	20800215 	stw	r2,8(r4)
  802b70:	20c00315 	stw	r3,12(r4)
  }
  d->_cg32 = d->_Pacemaker_local__Atrig || d->_Pacemaker_local__Atrig1;
  802b74:	e0bffd17 	ldw	r2,-12(fp)
  802b78:	10800903 	ldbu	r2,36(r2)
  802b7c:	10803fcc 	andi	r2,r2,255
  802b80:	1080201c 	xori	r2,r2,128
  802b84:	10bfe004 	addi	r2,r2,-128
  802b88:	1000061e 	bne	r2,zero,802ba4 <logic+0x2914>
  802b8c:	e0bffd17 	ldw	r2,-12(fp)
  802b90:	10800943 	ldbu	r2,37(r2)
  802b94:	10803fcc 	andi	r2,r2,255
  802b98:	1080201c 	xori	r2,r2,128
  802b9c:	10bfe004 	addi	r2,r2,-128
  802ba0:	10000226 	beq	r2,zero,802bac <logic+0x291c>
  802ba4:	00800044 	movi	r2,1
  802ba8:	00000106 	br	802bb0 <logic+0x2920>
  802bac:	0005883a 	mov	r2,zero
  802bb0:	1007883a 	mov	r3,r2
  802bb4:	e0bffd17 	ldw	r2,-12(fp)
  802bb8:	10c01ec5 	stb	r3,123(r2)
  d->_g31 = d->_g53 && !d->_cg30 || d->_g29 && !d->_cg32;
  802bbc:	e0bffd17 	ldw	r2,-12(fp)
  802bc0:	108012c3 	ldbu	r2,75(r2)
  802bc4:	10803fcc 	andi	r2,r2,255
  802bc8:	1080201c 	xori	r2,r2,128
  802bcc:	10bfe004 	addi	r2,r2,-128
  802bd0:	10000626 	beq	r2,zero,802bec <logic+0x295c>
  802bd4:	e0bffd17 	ldw	r2,-12(fp)
  802bd8:	10801e83 	ldbu	r2,122(r2)
  802bdc:	10803fcc 	andi	r2,r2,255
  802be0:	1080201c 	xori	r2,r2,128
  802be4:	10bfe004 	addi	r2,r2,-128
  802be8:	10000c26 	beq	r2,zero,802c1c <logic+0x298c>
  802bec:	e0bffd17 	ldw	r2,-12(fp)
  802bf0:	10800ec3 	ldbu	r2,59(r2)
  802bf4:	10803fcc 	andi	r2,r2,255
  802bf8:	1080201c 	xori	r2,r2,128
  802bfc:	10bfe004 	addi	r2,r2,-128
  802c00:	10000826 	beq	r2,zero,802c24 <logic+0x2994>
  802c04:	e0bffd17 	ldw	r2,-12(fp)
  802c08:	10801ec3 	ldbu	r2,123(r2)
  802c0c:	10803fcc 	andi	r2,r2,255
  802c10:	1080201c 	xori	r2,r2,128
  802c14:	10bfe004 	addi	r2,r2,-128
  802c18:	1000021e 	bne	r2,zero,802c24 <logic+0x2994>
  802c1c:	00800044 	movi	r2,1
  802c20:	00000106 	br	802c28 <logic+0x2998>
  802c24:	0005883a 	mov	r2,zero
  802c28:	1007883a 	mov	r3,r2
  802c2c:	e0bffd17 	ldw	r2,-12(fp)
  802c30:	10c00f05 	stb	r3,60(r2)
  d->_g33 = d->_g29 && d->_cg32;
  802c34:	e0bffd17 	ldw	r2,-12(fp)
  802c38:	10800ec3 	ldbu	r2,59(r2)
  802c3c:	10803fcc 	andi	r2,r2,255
  802c40:	1080201c 	xori	r2,r2,128
  802c44:	10bfe004 	addi	r2,r2,-128
  802c48:	10000826 	beq	r2,zero,802c6c <logic+0x29dc>
  802c4c:	e0bffd17 	ldw	r2,-12(fp)
  802c50:	10801ec3 	ldbu	r2,123(r2)
  802c54:	10803fcc 	andi	r2,r2,255
  802c58:	1080201c 	xori	r2,r2,128
  802c5c:	10bfe004 	addi	r2,r2,-128
  802c60:	10000226 	beq	r2,zero,802c6c <logic+0x29dc>
  802c64:	00800044 	movi	r2,1
  802c68:	00000106 	br	802c70 <logic+0x29e0>
  802c6c:	0005883a 	mov	r2,zero
  802c70:	1007883a 	mov	r3,r2
  802c74:	e0bffd17 	ldw	r2,-12(fp)
  802c78:	10c00f85 	stb	r3,62(r2)
  d->_g3 = d->_g53 || d->_g53_e2 && !d->_cg39;
  802c7c:	e0bffd17 	ldw	r2,-12(fp)
  802c80:	108012c3 	ldbu	r2,75(r2)
  802c84:	10803fcc 	andi	r2,r2,255
  802c88:	1080201c 	xori	r2,r2,128
  802c8c:	10bfe004 	addi	r2,r2,-128
  802c90:	10000c1e 	bne	r2,zero,802cc4 <logic+0x2a34>
  802c94:	e0bffd17 	ldw	r2,-12(fp)
  802c98:	10802983 	ldbu	r2,166(r2)
  802c9c:	10803fcc 	andi	r2,r2,255
  802ca0:	1080201c 	xori	r2,r2,128
  802ca4:	10bfe004 	addi	r2,r2,-128
  802ca8:	10000826 	beq	r2,zero,802ccc <logic+0x2a3c>
  802cac:	e0bffd17 	ldw	r2,-12(fp)
  802cb0:	10801f03 	ldbu	r2,124(r2)
  802cb4:	10803fcc 	andi	r2,r2,255
  802cb8:	1080201c 	xori	r2,r2,128
  802cbc:	10bfe004 	addi	r2,r2,-128
  802cc0:	1000021e 	bne	r2,zero,802ccc <logic+0x2a3c>
  802cc4:	00800044 	movi	r2,1
  802cc8:	00000106 	br	802cd0 <logic+0x2a40>
  802ccc:	0005883a 	mov	r2,zero
  802cd0:	1007883a 	mov	r3,r2
  802cd4:	e0bffd17 	ldw	r2,-12(fp)
  802cd8:	10c00a45 	stb	r3,41(r2)
  d->_g39 = d->_g83 || d->_g90;
  802cdc:	e0bffd17 	ldw	r2,-12(fp)
  802ce0:	10801643 	ldbu	r2,89(r2)
  802ce4:	10803fcc 	andi	r2,r2,255
  802ce8:	1080201c 	xori	r2,r2,128
  802cec:	10bfe004 	addi	r2,r2,-128
  802cf0:	1000061e 	bne	r2,zero,802d0c <logic+0x2a7c>
  802cf4:	e0bffd17 	ldw	r2,-12(fp)
  802cf8:	10801703 	ldbu	r2,92(r2)
  802cfc:	10803fcc 	andi	r2,r2,255
  802d00:	1080201c 	xori	r2,r2,128
  802d04:	10bfe004 	addi	r2,r2,-128
  802d08:	10000226 	beq	r2,zero,802d14 <logic+0x2a84>
  802d0c:	00800044 	movi	r2,1
  802d10:	00000106 	br	802d18 <logic+0x2a88>
  802d14:	0005883a 	mov	r2,zero
  802d18:	1007883a 	mov	r3,r2
  802d1c:	e0bffd17 	ldw	r2,-12(fp)
  802d20:	10c01085 	stb	r3,66(r2)
  d->_g40 = !d->_g75;
  802d24:	e0bffd17 	ldw	r2,-12(fp)
  802d28:	10801583 	ldbu	r2,86(r2)
  802d2c:	10803fcc 	andi	r2,r2,255
  802d30:	1080201c 	xori	r2,r2,128
  802d34:	10bfe004 	addi	r2,r2,-128
  802d38:	1005003a 	cmpeq	r2,r2,zero
  802d3c:	1007883a 	mov	r3,r2
  802d40:	e0bffd17 	ldw	r2,-12(fp)
  802d44:	10c010c5 	stb	r3,67(r2)
  d->_g37 = !(d->_g106 || d->_g118);
  802d48:	e0bffd17 	ldw	r2,-12(fp)
  802d4c:	10801983 	ldbu	r2,102(r2)
  802d50:	10803fcc 	andi	r2,r2,255
  802d54:	1080201c 	xori	r2,r2,128
  802d58:	10bfe004 	addi	r2,r2,-128
  802d5c:	1000081e 	bne	r2,zero,802d80 <logic+0x2af0>
  802d60:	e0bffd17 	ldw	r2,-12(fp)
  802d64:	10801a83 	ldbu	r2,106(r2)
  802d68:	10803fcc 	andi	r2,r2,255
  802d6c:	1080201c 	xori	r2,r2,128
  802d70:	10bfe004 	addi	r2,r2,-128
  802d74:	1000021e 	bne	r2,zero,802d80 <logic+0x2af0>
  802d78:	00800044 	movi	r2,1
  802d7c:	00000106 	br	802d84 <logic+0x2af4>
  802d80:	0005883a 	mov	r2,zero
  802d84:	1007883a 	mov	r3,r2
  802d88:	e0bffd17 	ldw	r2,-12(fp)
  802d8c:	10c01005 	stb	r3,64(r2)
  d->_g6 = !(d->_g28 || d->_g18);
  802d90:	e0bffd17 	ldw	r2,-12(fp)
  802d94:	10800e83 	ldbu	r2,58(r2)
  802d98:	10803fcc 	andi	r2,r2,255
  802d9c:	1080201c 	xori	r2,r2,128
  802da0:	10bfe004 	addi	r2,r2,-128
  802da4:	1000081e 	bne	r2,zero,802dc8 <logic+0x2b38>
  802da8:	e0bffd17 	ldw	r2,-12(fp)
  802dac:	10800cc3 	ldbu	r2,51(r2)
  802db0:	10803fcc 	andi	r2,r2,255
  802db4:	1080201c 	xori	r2,r2,128
  802db8:	10bfe004 	addi	r2,r2,-128
  802dbc:	1000021e 	bne	r2,zero,802dc8 <logic+0x2b38>
  802dc0:	00800044 	movi	r2,1
  802dc4:	00000106 	br	802dcc <logic+0x2b3c>
  802dc8:	0005883a 	mov	r2,zero
  802dcc:	1007883a 	mov	r3,r2
  802dd0:	e0bffd17 	ldw	r2,-12(fp)
  802dd4:	10c00a85 	stb	r3,42(r2)
  d->_g11 = !d->_g29;
  802dd8:	e0bffd17 	ldw	r2,-12(fp)
  802ddc:	10800ec3 	ldbu	r2,59(r2)
  802de0:	10803fcc 	andi	r2,r2,255
  802de4:	1080201c 	xori	r2,r2,128
  802de8:	10bfe004 	addi	r2,r2,-128
  802dec:	1005003a 	cmpeq	r2,r2,zero
  802df0:	1007883a 	mov	r3,r2
  802df4:	e0bffd17 	ldw	r2,-12(fp)
  802df8:	10c00b45 	stb	r3,45(r2)
  d->_g17 = !d->_g83_e5;
  802dfc:	e0bffd17 	ldw	r2,-12(fp)
  802e00:	10802a43 	ldbu	r2,169(r2)
  802e04:	10803fcc 	andi	r2,r2,255
  802e08:	1080201c 	xori	r2,r2,128
  802e0c:	10bfe004 	addi	r2,r2,-128
  802e10:	1005003a 	cmpeq	r2,r2,zero
  802e14:	1007883a 	mov	r3,r2
  802e18:	e0bffd17 	ldw	r2,-12(fp)
  802e1c:	10c00c85 	stb	r3,50(r2)
  d->_g22 = (d->_g40 || d->_g75_e4) && (d->_g37 || d->_g9) && (d->_g6 || d->_g24) && (d->_g11 || d->_g33) && (d->_g17 || d->_g39) && (d->_g75_e4 || d->_g9 || d->_g24 || d->_g33 || d->_g39);
  802e20:	e0bffd17 	ldw	r2,-12(fp)
  802e24:	108010c3 	ldbu	r2,67(r2)
  802e28:	10803fcc 	andi	r2,r2,255
  802e2c:	1080201c 	xori	r2,r2,128
  802e30:	10bfe004 	addi	r2,r2,-128
  802e34:	1000061e 	bne	r2,zero,802e50 <logic+0x2bc0>
  802e38:	e0bffd17 	ldw	r2,-12(fp)
  802e3c:	10802a03 	ldbu	r2,168(r2)
  802e40:	10803fcc 	andi	r2,r2,255
  802e44:	1080201c 	xori	r2,r2,128
  802e48:	10bfe004 	addi	r2,r2,-128
  802e4c:	10005026 	beq	r2,zero,802f90 <logic+0x2d00>
  802e50:	e0bffd17 	ldw	r2,-12(fp)
  802e54:	10801003 	ldbu	r2,64(r2)
  802e58:	10803fcc 	andi	r2,r2,255
  802e5c:	1080201c 	xori	r2,r2,128
  802e60:	10bfe004 	addi	r2,r2,-128
  802e64:	1000061e 	bne	r2,zero,802e80 <logic+0x2bf0>
  802e68:	e0bffd17 	ldw	r2,-12(fp)
  802e6c:	10800b03 	ldbu	r2,44(r2)
  802e70:	10803fcc 	andi	r2,r2,255
  802e74:	1080201c 	xori	r2,r2,128
  802e78:	10bfe004 	addi	r2,r2,-128
  802e7c:	10004426 	beq	r2,zero,802f90 <logic+0x2d00>
  802e80:	e0bffd17 	ldw	r2,-12(fp)
  802e84:	10800a83 	ldbu	r2,42(r2)
  802e88:	10803fcc 	andi	r2,r2,255
  802e8c:	1080201c 	xori	r2,r2,128
  802e90:	10bfe004 	addi	r2,r2,-128
  802e94:	1000061e 	bne	r2,zero,802eb0 <logic+0x2c20>
  802e98:	e0bffd17 	ldw	r2,-12(fp)
  802e9c:	10800dc3 	ldbu	r2,55(r2)
  802ea0:	10803fcc 	andi	r2,r2,255
  802ea4:	1080201c 	xori	r2,r2,128
  802ea8:	10bfe004 	addi	r2,r2,-128
  802eac:	10003826 	beq	r2,zero,802f90 <logic+0x2d00>
  802eb0:	e0bffd17 	ldw	r2,-12(fp)
  802eb4:	10800b43 	ldbu	r2,45(r2)
  802eb8:	10803fcc 	andi	r2,r2,255
  802ebc:	1080201c 	xori	r2,r2,128
  802ec0:	10bfe004 	addi	r2,r2,-128
  802ec4:	1000061e 	bne	r2,zero,802ee0 <logic+0x2c50>
  802ec8:	e0bffd17 	ldw	r2,-12(fp)
  802ecc:	10800f83 	ldbu	r2,62(r2)
  802ed0:	10803fcc 	andi	r2,r2,255
  802ed4:	1080201c 	xori	r2,r2,128
  802ed8:	10bfe004 	addi	r2,r2,-128
  802edc:	10002c26 	beq	r2,zero,802f90 <logic+0x2d00>
  802ee0:	e0bffd17 	ldw	r2,-12(fp)
  802ee4:	10800c83 	ldbu	r2,50(r2)
  802ee8:	10803fcc 	andi	r2,r2,255
  802eec:	1080201c 	xori	r2,r2,128
  802ef0:	10bfe004 	addi	r2,r2,-128
  802ef4:	1000061e 	bne	r2,zero,802f10 <logic+0x2c80>
  802ef8:	e0bffd17 	ldw	r2,-12(fp)
  802efc:	10801083 	ldbu	r2,66(r2)
  802f00:	10803fcc 	andi	r2,r2,255
  802f04:	1080201c 	xori	r2,r2,128
  802f08:	10bfe004 	addi	r2,r2,-128
  802f0c:	10002026 	beq	r2,zero,802f90 <logic+0x2d00>
  802f10:	e0bffd17 	ldw	r2,-12(fp)
  802f14:	10802a03 	ldbu	r2,168(r2)
  802f18:	10803fcc 	andi	r2,r2,255
  802f1c:	1080201c 	xori	r2,r2,128
  802f20:	10bfe004 	addi	r2,r2,-128
  802f24:	1000181e 	bne	r2,zero,802f88 <logic+0x2cf8>
  802f28:	e0bffd17 	ldw	r2,-12(fp)
  802f2c:	10800b03 	ldbu	r2,44(r2)
  802f30:	10803fcc 	andi	r2,r2,255
  802f34:	1080201c 	xori	r2,r2,128
  802f38:	10bfe004 	addi	r2,r2,-128
  802f3c:	1000121e 	bne	r2,zero,802f88 <logic+0x2cf8>
  802f40:	e0bffd17 	ldw	r2,-12(fp)
  802f44:	10800dc3 	ldbu	r2,55(r2)
  802f48:	10803fcc 	andi	r2,r2,255
  802f4c:	1080201c 	xori	r2,r2,128
  802f50:	10bfe004 	addi	r2,r2,-128
  802f54:	10000c1e 	bne	r2,zero,802f88 <logic+0x2cf8>
  802f58:	e0bffd17 	ldw	r2,-12(fp)
  802f5c:	10800f83 	ldbu	r2,62(r2)
  802f60:	10803fcc 	andi	r2,r2,255
  802f64:	1080201c 	xori	r2,r2,128
  802f68:	10bfe004 	addi	r2,r2,-128
  802f6c:	1000061e 	bne	r2,zero,802f88 <logic+0x2cf8>
  802f70:	e0bffd17 	ldw	r2,-12(fp)
  802f74:	10801083 	ldbu	r2,66(r2)
  802f78:	10803fcc 	andi	r2,r2,255
  802f7c:	1080201c 	xori	r2,r2,128
  802f80:	10bfe004 	addi	r2,r2,-128
  802f84:	10000226 	beq	r2,zero,802f90 <logic+0x2d00>
  802f88:	00800044 	movi	r2,1
  802f8c:	00000106 	br	802f94 <logic+0x2d04>
  802f90:	0005883a 	mov	r2,zero
  802f94:	1007883a 	mov	r3,r2
  802f98:	e0bffd17 	ldw	r2,-12(fp)
  802f9c:	10c00d45 	stb	r3,53(r2)
  d->_cg41 = d->_Pacemaker_local__Atrig;
  802fa0:	e0bffd17 	ldw	r2,-12(fp)
  802fa4:	10c00903 	ldbu	r3,36(r2)
  802fa8:	e0bffd17 	ldw	r2,-12(fp)
  802fac:	10c01f85 	stb	r3,126(r2)
  d->_g28 = d->_g22 && !d->_cg41;
  802fb0:	e0bffd17 	ldw	r2,-12(fp)
  802fb4:	10800d43 	ldbu	r2,53(r2)
  802fb8:	10803fcc 	andi	r2,r2,255
  802fbc:	1080201c 	xori	r2,r2,128
  802fc0:	10bfe004 	addi	r2,r2,-128
  802fc4:	10000826 	beq	r2,zero,802fe8 <logic+0x2d58>
  802fc8:	e0bffd17 	ldw	r2,-12(fp)
  802fcc:	10801f83 	ldbu	r2,126(r2)
  802fd0:	10803fcc 	andi	r2,r2,255
  802fd4:	1080201c 	xori	r2,r2,128
  802fd8:	10bfe004 	addi	r2,r2,-128
  802fdc:	1000021e 	bne	r2,zero,802fe8 <logic+0x2d58>
  802fe0:	00800044 	movi	r2,1
  802fe4:	00000106 	br	802fec <logic+0x2d5c>
  802fe8:	0005883a 	mov	r2,zero
  802fec:	1007883a 	mov	r3,r2
  802ff0:	e0bffd17 	ldw	r2,-12(fp)
  802ff4:	10c00e85 	stb	r3,58(r2)
  if (d->_g28) {
  802ff8:	e0bffd17 	ldw	r2,-12(fp)
  802ffc:	10800e83 	ldbu	r2,58(r2)
  803000:	10803fcc 	andi	r2,r2,255
  803004:	1080201c 	xori	r2,r2,128
  803008:	10bfe004 	addi	r2,r2,-128
  80300c:	10000626 	beq	r2,zero,803028 <logic+0x2d98>
    d->AP |= 1;
  803010:	e0bffd17 	ldw	r2,-12(fp)
  803014:	10800883 	ldbu	r2,34(r2)
  803018:	10800054 	ori	r2,r2,1
  80301c:	1007883a 	mov	r3,r2
  803020:	e0bffd17 	ldw	r2,-12(fp)
  803024:	10c00885 	stb	r3,34(r2)
  }
  d->_g32 = d->_g22 && d->_cg41 || d->_g28;
  803028:	e0bffd17 	ldw	r2,-12(fp)
  80302c:	10800d43 	ldbu	r2,53(r2)
  803030:	10803fcc 	andi	r2,r2,255
  803034:	1080201c 	xori	r2,r2,128
  803038:	10bfe004 	addi	r2,r2,-128
  80303c:	10000626 	beq	r2,zero,803058 <logic+0x2dc8>
  803040:	e0bffd17 	ldw	r2,-12(fp)
  803044:	10801f83 	ldbu	r2,126(r2)
  803048:	10803fcc 	andi	r2,r2,255
  80304c:	1080201c 	xori	r2,r2,128
  803050:	10bfe004 	addi	r2,r2,-128
  803054:	1000061e 	bne	r2,zero,803070 <logic+0x2de0>
  803058:	e0bffd17 	ldw	r2,-12(fp)
  80305c:	10800e83 	ldbu	r2,58(r2)
  803060:	10803fcc 	andi	r2,r2,255
  803064:	1080201c 	xori	r2,r2,128
  803068:	10bfe004 	addi	r2,r2,-128
  80306c:	10000226 	beq	r2,zero,803078 <logic+0x2de8>
  803070:	00800044 	movi	r2,1
  803074:	00000106 	br	80307c <logic+0x2dec>
  803078:	0005883a 	mov	r2,zero
  80307c:	1007883a 	mov	r3,r2
  803080:	e0bffd17 	ldw	r2,-12(fp)
  803084:	10c00f45 	stb	r3,61(r2)
  if (d->_g32) {
  803088:	e0bffd17 	ldw	r2,-12(fp)
  80308c:	10800f43 	ldbu	r2,61(r2)
  803090:	10803fcc 	andi	r2,r2,255
  803094:	1080201c 	xori	r2,r2,128
  803098:	10bfe004 	addi	r2,r2,-128
  80309c:	10000926 	beq	r2,zero,8030c4 <logic+0x2e34>
    d->_region0_Atrium_AtriumTimer = 0;
  8030a0:	e0bffd17 	ldw	r2,-12(fp)
  8030a4:	10000215 	stw	zero,8(r2)
  8030a8:	10000315 	stw	zero,12(r2)
    d->_Pacemaker_local__Atrig2 = 0;
  8030ac:	e0bffd17 	ldw	r2,-12(fp)
  8030b0:	10000985 	stb	zero,38(r2)
    d->_Pacemaker_local__Atrig3 = 0;
  8030b4:	e0bffd17 	ldw	r2,-12(fp)
  8030b8:	100009c5 	stb	zero,39(r2)
    d->_Pacemaker_local__Atrig4 = 0;
  8030bc:	e0bffd17 	ldw	r2,-12(fp)
  8030c0:	10000a05 	stb	zero,40(r2)
  }
  d->_cg43 = d->_Pacemaker_local__Atrig2 || d->_Pacemaker_local__Atrig3 || d->_Pacemaker_local__Atrig4;
  8030c4:	e0bffd17 	ldw	r2,-12(fp)
  8030c8:	10800983 	ldbu	r2,38(r2)
  8030cc:	10803fcc 	andi	r2,r2,255
  8030d0:	1080201c 	xori	r2,r2,128
  8030d4:	10bfe004 	addi	r2,r2,-128
  8030d8:	10000c1e 	bne	r2,zero,80310c <logic+0x2e7c>
  8030dc:	e0bffd17 	ldw	r2,-12(fp)
  8030e0:	108009c3 	ldbu	r2,39(r2)
  8030e4:	10803fcc 	andi	r2,r2,255
  8030e8:	1080201c 	xori	r2,r2,128
  8030ec:	10bfe004 	addi	r2,r2,-128
  8030f0:	1000061e 	bne	r2,zero,80310c <logic+0x2e7c>
  8030f4:	e0bffd17 	ldw	r2,-12(fp)
  8030f8:	10800a03 	ldbu	r2,40(r2)
  8030fc:	10803fcc 	andi	r2,r2,255
  803100:	1080201c 	xori	r2,r2,128
  803104:	10bfe004 	addi	r2,r2,-128
  803108:	10000226 	beq	r2,zero,803114 <logic+0x2e84>
  80310c:	00800044 	movi	r2,1
  803110:	00000106 	br	803118 <logic+0x2e88>
  803114:	0005883a 	mov	r2,zero
  803118:	1007883a 	mov	r3,r2
  80311c:	e0bffd17 	ldw	r2,-12(fp)
  803120:	10c01fc5 	stb	r3,127(r2)
  d->_g36 = d->_g32 && !d->_cg43 || d->_g45 && !d->_cg45;
  803124:	e0bffd17 	ldw	r2,-12(fp)
  803128:	10800f43 	ldbu	r2,61(r2)
  80312c:	10803fcc 	andi	r2,r2,255
  803130:	1080201c 	xori	r2,r2,128
  803134:	10bfe004 	addi	r2,r2,-128
  803138:	10000626 	beq	r2,zero,803154 <logic+0x2ec4>
  80313c:	e0bffd17 	ldw	r2,-12(fp)
  803140:	10801fc3 	ldbu	r2,127(r2)
  803144:	10803fcc 	andi	r2,r2,255
  803148:	1080201c 	xori	r2,r2,128
  80314c:	10bfe004 	addi	r2,r2,-128
  803150:	10000c26 	beq	r2,zero,803184 <logic+0x2ef4>
  803154:	e0bffd17 	ldw	r2,-12(fp)
  803158:	10801143 	ldbu	r2,69(r2)
  80315c:	10803fcc 	andi	r2,r2,255
  803160:	1080201c 	xori	r2,r2,128
  803164:	10bfe004 	addi	r2,r2,-128
  803168:	10000826 	beq	r2,zero,80318c <logic+0x2efc>
  80316c:	e0bffd17 	ldw	r2,-12(fp)
  803170:	10802003 	ldbu	r2,128(r2)
  803174:	10803fcc 	andi	r2,r2,255
  803178:	1080201c 	xori	r2,r2,128
  80317c:	10bfe004 	addi	r2,r2,-128
  803180:	1000021e 	bne	r2,zero,80318c <logic+0x2efc>
  803184:	00800044 	movi	r2,1
  803188:	00000106 	br	803190 <logic+0x2f00>
  80318c:	0005883a 	mov	r2,zero
  803190:	1007883a 	mov	r3,r2
  803194:	e0bffd17 	ldw	r2,-12(fp)
  803198:	10c00fc5 	stb	r3,63(r2)
  d->_cg47 = d->_region0_Atrium_VentricleTimer < VRP_VALUE;
  80319c:	e13ffd17 	ldw	r4,-12(fp)
  8031a0:	20800017 	ldw	r2,0(r4)
  8031a4:	20c00117 	ldw	r3,4(r4)
  8031a8:	04000044 	movi	r16,1
  8031ac:	000d883a 	mov	r6,zero
  8031b0:	01d018f4 	movhi	r7,16483
  8031b4:	39f00004 	addi	r7,r7,-16384
  8031b8:	1009883a 	mov	r4,r2
  8031bc:	180b883a 	mov	r5,r3
  8031c0:	08053100 	call	805310 <__ledf2>
  8031c4:	10000116 	blt	r2,zero,8031cc <logic+0x2f3c>
  8031c8:	0021883a 	mov	r16,zero
  8031cc:	8007883a 	mov	r3,r16
  8031d0:	e0bffd17 	ldw	r2,-12(fp)
  8031d4:	10c02045 	stb	r3,129(r2)
  d->_g38 = d->_g32 && d->_cg47;
  8031d8:	e0bffd17 	ldw	r2,-12(fp)
  8031dc:	10800f43 	ldbu	r2,61(r2)
  8031e0:	10803fcc 	andi	r2,r2,255
  8031e4:	1080201c 	xori	r2,r2,128
  8031e8:	10bfe004 	addi	r2,r2,-128
  8031ec:	10000826 	beq	r2,zero,803210 <logic+0x2f80>
  8031f0:	e0bffd17 	ldw	r2,-12(fp)
  8031f4:	10802043 	ldbu	r2,129(r2)
  8031f8:	10803fcc 	andi	r2,r2,255
  8031fc:	1080201c 	xori	r2,r2,128
  803200:	10bfe004 	addi	r2,r2,-128
  803204:	10000226 	beq	r2,zero,803210 <logic+0x2f80>
  803208:	00800044 	movi	r2,1
  80320c:	00000106 	br	803214 <logic+0x2f84>
  803210:	0005883a 	mov	r2,zero
  803214:	1007883a 	mov	r3,r2
  803218:	e0bffd17 	ldw	r2,-12(fp)
  80321c:	10c01045 	stb	r3,65(r2)
  if (d->_g38) {
  803220:	e0bffd17 	ldw	r2,-12(fp)
  803224:	10801043 	ldbu	r2,65(r2)
  803228:	10803fcc 	andi	r2,r2,255
  80322c:	1080201c 	xori	r2,r2,128
  803230:	10bfe004 	addi	r2,r2,-128
  803234:	10002a26 	beq	r2,zero,8032e0 <logic+0x3050>
    d->sleepT = (d->sleepT < (VRP_VALUE - d->_region0_Atrium_VentricleTimer)) ? d->sleepT : (VRP_VALUE - d->_region0_Atrium_VentricleTimer);
  803238:	e0bffd17 	ldw	r2,-12(fp)
  80323c:	14000617 	ldw	r16,24(r2)
  803240:	14400717 	ldw	r17,28(r2)
  803244:	e13ffd17 	ldw	r4,-12(fp)
  803248:	20800017 	ldw	r2,0(r4)
  80324c:	20c00117 	ldw	r3,4(r4)
  803250:	100d883a 	mov	r6,r2
  803254:	180f883a 	mov	r7,r3
  803258:	0009883a 	mov	r4,zero
  80325c:	015018f4 	movhi	r5,16483
  803260:	29700004 	addi	r5,r5,-16384
  803264:	0805b1c0 	call	805b1c <__subdf3>
  803268:	1009883a 	mov	r4,r2
  80326c:	180b883a 	mov	r5,r3
  803270:	2005883a 	mov	r2,r4
  803274:	2807883a 	mov	r3,r5
  803278:	100d883a 	mov	r6,r2
  80327c:	180f883a 	mov	r7,r3
  803280:	8009883a 	mov	r4,r16
  803284:	880b883a 	mov	r5,r17
  803288:	08053100 	call	805310 <__ledf2>
  80328c:	1000040e 	bge	r2,zero,8032a0 <logic+0x3010>
  803290:	e13ffd17 	ldw	r4,-12(fp)
  803294:	20800617 	ldw	r2,24(r4)
  803298:	20c00717 	ldw	r3,28(r4)
  80329c:	00000d06 	br	8032d4 <logic+0x3044>
  8032a0:	e13ffd17 	ldw	r4,-12(fp)
  8032a4:	20800017 	ldw	r2,0(r4)
  8032a8:	20c00117 	ldw	r3,4(r4)
  8032ac:	100d883a 	mov	r6,r2
  8032b0:	180f883a 	mov	r7,r3
  8032b4:	0009883a 	mov	r4,zero
  8032b8:	015018f4 	movhi	r5,16483
  8032bc:	29700004 	addi	r5,r5,-16384
  8032c0:	0805b1c0 	call	805b1c <__subdf3>
  8032c4:	1009883a 	mov	r4,r2
  8032c8:	180b883a 	mov	r5,r3
  8032cc:	2005883a 	mov	r2,r4
  8032d0:	2807883a 	mov	r3,r5
  8032d4:	e13ffd17 	ldw	r4,-12(fp)
  8032d8:	20800615 	stw	r2,24(r4)
  8032dc:	20c00715 	stw	r3,28(r4)
  }
  d->_cg48 = d->_Pacemaker_local__Atrig2 || d->_Pacemaker_local__Atrig3 || d->_Pacemaker_local__Atrig4;
  8032e0:	e0bffd17 	ldw	r2,-12(fp)
  8032e4:	10800983 	ldbu	r2,38(r2)
  8032e8:	10803fcc 	andi	r2,r2,255
  8032ec:	1080201c 	xori	r2,r2,128
  8032f0:	10bfe004 	addi	r2,r2,-128
  8032f4:	10000c1e 	bne	r2,zero,803328 <logic+0x3098>
  8032f8:	e0bffd17 	ldw	r2,-12(fp)
  8032fc:	108009c3 	ldbu	r2,39(r2)
  803300:	10803fcc 	andi	r2,r2,255
  803304:	1080201c 	xori	r2,r2,128
  803308:	10bfe004 	addi	r2,r2,-128
  80330c:	1000061e 	bne	r2,zero,803328 <logic+0x3098>
  803310:	e0bffd17 	ldw	r2,-12(fp)
  803314:	10800a03 	ldbu	r2,40(r2)
  803318:	10803fcc 	andi	r2,r2,255
  80331c:	1080201c 	xori	r2,r2,128
  803320:	10bfe004 	addi	r2,r2,-128
  803324:	10000226 	beq	r2,zero,803330 <logic+0x30a0>
  803328:	00800044 	movi	r2,1
  80332c:	00000106 	br	803334 <logic+0x30a4>
  803330:	0005883a 	mov	r2,zero
  803334:	1007883a 	mov	r3,r2
  803338:	e0bffd17 	ldw	r2,-12(fp)
  80333c:	10c02085 	stb	r3,130(r2)
  d->_g33 = d->_g38 && !d->_cg48 || d->_g50 && !d->_cg52;
  803340:	e0bffd17 	ldw	r2,-12(fp)
  803344:	10801043 	ldbu	r2,65(r2)
  803348:	10803fcc 	andi	r2,r2,255
  80334c:	1080201c 	xori	r2,r2,128
  803350:	10bfe004 	addi	r2,r2,-128
  803354:	10000626 	beq	r2,zero,803370 <logic+0x30e0>
  803358:	e0bffd17 	ldw	r2,-12(fp)
  80335c:	10802083 	ldbu	r2,130(r2)
  803360:	10803fcc 	andi	r2,r2,255
  803364:	1080201c 	xori	r2,r2,128
  803368:	10bfe004 	addi	r2,r2,-128
  80336c:	10000c26 	beq	r2,zero,8033a0 <logic+0x3110>
  803370:	e0bffd17 	ldw	r2,-12(fp)
  803374:	10801203 	ldbu	r2,72(r2)
  803378:	10803fcc 	andi	r2,r2,255
  80337c:	1080201c 	xori	r2,r2,128
  803380:	10bfe004 	addi	r2,r2,-128
  803384:	10000826 	beq	r2,zero,8033a8 <logic+0x3118>
  803388:	e0bffd17 	ldw	r2,-12(fp)
  80338c:	108020c3 	ldbu	r2,131(r2)
  803390:	10803fcc 	andi	r2,r2,255
  803394:	1080201c 	xori	r2,r2,128
  803398:	10bfe004 	addi	r2,r2,-128
  80339c:	1000021e 	bne	r2,zero,8033a8 <logic+0x3118>
  8033a0:	00800044 	movi	r2,1
  8033a4:	00000106 	br	8033ac <logic+0x311c>
  8033a8:	0005883a 	mov	r2,zero
  8033ac:	1007883a 	mov	r3,r2
  8033b0:	e0bffd17 	ldw	r2,-12(fp)
  8033b4:	10c00f85 	stb	r3,62(r2)
  d->_g25 = d->_g32 && !d->_cg47;
  8033b8:	e0bffd17 	ldw	r2,-12(fp)
  8033bc:	10800f43 	ldbu	r2,61(r2)
  8033c0:	10803fcc 	andi	r2,r2,255
  8033c4:	1080201c 	xori	r2,r2,128
  8033c8:	10bfe004 	addi	r2,r2,-128
  8033cc:	10000826 	beq	r2,zero,8033f0 <logic+0x3160>
  8033d0:	e0bffd17 	ldw	r2,-12(fp)
  8033d4:	10802043 	ldbu	r2,129(r2)
  8033d8:	10803fcc 	andi	r2,r2,255
  8033dc:	1080201c 	xori	r2,r2,128
  8033e0:	10bfe004 	addi	r2,r2,-128
  8033e4:	1000021e 	bne	r2,zero,8033f0 <logic+0x3160>
  8033e8:	00800044 	movi	r2,1
  8033ec:	00000106 	br	8033f4 <logic+0x3164>
  8033f0:	0005883a 	mov	r2,zero
  8033f4:	1007883a 	mov	r3,r2
  8033f8:	e0bffd17 	ldw	r2,-12(fp)
  8033fc:	10c00e05 	stb	r3,56(r2)
  d->_cg57 = d->_Pacemaker_local__Atrig2 || d->_Pacemaker_local__Atrig3 || d->_Pacemaker_local__Atrig4;
  803400:	e0bffd17 	ldw	r2,-12(fp)
  803404:	10800983 	ldbu	r2,38(r2)
  803408:	10803fcc 	andi	r2,r2,255
  80340c:	1080201c 	xori	r2,r2,128
  803410:	10bfe004 	addi	r2,r2,-128
  803414:	10000c1e 	bne	r2,zero,803448 <logic+0x31b8>
  803418:	e0bffd17 	ldw	r2,-12(fp)
  80341c:	108009c3 	ldbu	r2,39(r2)
  803420:	10803fcc 	andi	r2,r2,255
  803424:	1080201c 	xori	r2,r2,128
  803428:	10bfe004 	addi	r2,r2,-128
  80342c:	1000061e 	bne	r2,zero,803448 <logic+0x31b8>
  803430:	e0bffd17 	ldw	r2,-12(fp)
  803434:	10800a03 	ldbu	r2,40(r2)
  803438:	10803fcc 	andi	r2,r2,255
  80343c:	1080201c 	xori	r2,r2,128
  803440:	10bfe004 	addi	r2,r2,-128
  803444:	10000226 	beq	r2,zero,803450 <logic+0x31c0>
  803448:	00800044 	movi	r2,1
  80344c:	00000106 	br	803454 <logic+0x31c4>
  803450:	0005883a 	mov	r2,zero
  803454:	1007883a 	mov	r3,r2
  803458:	e0bffd17 	ldw	r2,-12(fp)
  80345c:	10c02185 	stb	r3,134(r2)
  d->_g14 = d->_g51 && !d->_cg54 || d->_g25 && !d->_cg57;
  803460:	e0bffd17 	ldw	r2,-12(fp)
  803464:	10801243 	ldbu	r2,73(r2)
  803468:	10803fcc 	andi	r2,r2,255
  80346c:	1080201c 	xori	r2,r2,128
  803470:	10bfe004 	addi	r2,r2,-128
  803474:	10000626 	beq	r2,zero,803490 <logic+0x3200>
  803478:	e0bffd17 	ldw	r2,-12(fp)
  80347c:	10802143 	ldbu	r2,133(r2)
  803480:	10803fcc 	andi	r2,r2,255
  803484:	1080201c 	xori	r2,r2,128
  803488:	10bfe004 	addi	r2,r2,-128
  80348c:	10000c26 	beq	r2,zero,8034c0 <logic+0x3230>
  803490:	e0bffd17 	ldw	r2,-12(fp)
  803494:	10800e03 	ldbu	r2,56(r2)
  803498:	10803fcc 	andi	r2,r2,255
  80349c:	1080201c 	xori	r2,r2,128
  8034a0:	10bfe004 	addi	r2,r2,-128
  8034a4:	10000826 	beq	r2,zero,8034c8 <logic+0x3238>
  8034a8:	e0bffd17 	ldw	r2,-12(fp)
  8034ac:	10802183 	ldbu	r2,134(r2)
  8034b0:	10803fcc 	andi	r2,r2,255
  8034b4:	1080201c 	xori	r2,r2,128
  8034b8:	10bfe004 	addi	r2,r2,-128
  8034bc:	1000021e 	bne	r2,zero,8034c8 <logic+0x3238>
  8034c0:	00800044 	movi	r2,1
  8034c4:	00000106 	br	8034cc <logic+0x323c>
  8034c8:	0005883a 	mov	r2,zero
  8034cc:	1007883a 	mov	r3,r2
  8034d0:	e0bffd17 	ldw	r2,-12(fp)
  8034d4:	10c00c05 	stb	r3,48(r2)
  d->_cg58 = d->_region0_Atrium_VentricleTimer < URI_VALUE;
  8034d8:	e13ffd17 	ldw	r4,-12(fp)
  8034dc:	20800017 	ldw	r2,0(r4)
  8034e0:	20c00117 	ldw	r3,4(r4)
  8034e4:	04000044 	movi	r16,1
  8034e8:	000d883a 	mov	r6,zero
  8034ec:	01d02334 	movhi	r7,16524
  8034f0:	39c80004 	addi	r7,r7,8192
  8034f4:	1009883a 	mov	r4,r2
  8034f8:	180b883a 	mov	r5,r3
  8034fc:	08053100 	call	805310 <__ledf2>
  803500:	10000116 	blt	r2,zero,803508 <logic+0x3278>
  803504:	0021883a 	mov	r16,zero
  803508:	8007883a 	mov	r3,r16
  80350c:	e0bffd17 	ldw	r2,-12(fp)
  803510:	10c021c5 	stb	r3,135(r2)
  d->_g33_e4 = d->_g32 && d->_cg58;
  803514:	e0bffd17 	ldw	r2,-12(fp)
  803518:	10800f43 	ldbu	r2,61(r2)
  80351c:	10803fcc 	andi	r2,r2,255
  803520:	1080201c 	xori	r2,r2,128
  803524:	10bfe004 	addi	r2,r2,-128
  803528:	10000826 	beq	r2,zero,80354c <logic+0x32bc>
  80352c:	e0bffd17 	ldw	r2,-12(fp)
  803530:	108021c3 	ldbu	r2,135(r2)
  803534:	10803fcc 	andi	r2,r2,255
  803538:	1080201c 	xori	r2,r2,128
  80353c:	10bfe004 	addi	r2,r2,-128
  803540:	10000226 	beq	r2,zero,80354c <logic+0x32bc>
  803544:	00800044 	movi	r2,1
  803548:	00000106 	br	803550 <logic+0x32c0>
  80354c:	0005883a 	mov	r2,zero
  803550:	1007883a 	mov	r3,r2
  803554:	e0bffd17 	ldw	r2,-12(fp)
  803558:	10c028c5 	stb	r3,163(r2)
  if (d->_g33_e4) {
  80355c:	e0bffd17 	ldw	r2,-12(fp)
  803560:	108028c3 	ldbu	r2,163(r2)
  803564:	10803fcc 	andi	r2,r2,255
  803568:	1080201c 	xori	r2,r2,128
  80356c:	10bfe004 	addi	r2,r2,-128
  803570:	10002a26 	beq	r2,zero,80361c <logic+0x338c>
    d->sleepT = (d->sleepT < (URI_VALUE - d->_region0_Atrium_VentricleTimer)) ? d->sleepT : (URI_VALUE - d->_region0_Atrium_VentricleTimer);
  803574:	e0bffd17 	ldw	r2,-12(fp)
  803578:	14000617 	ldw	r16,24(r2)
  80357c:	14400717 	ldw	r17,28(r2)
  803580:	e13ffd17 	ldw	r4,-12(fp)
  803584:	20800017 	ldw	r2,0(r4)
  803588:	20c00117 	ldw	r3,4(r4)
  80358c:	100d883a 	mov	r6,r2
  803590:	180f883a 	mov	r7,r3
  803594:	0009883a 	mov	r4,zero
  803598:	01502334 	movhi	r5,16524
  80359c:	29480004 	addi	r5,r5,8192
  8035a0:	0805b1c0 	call	805b1c <__subdf3>
  8035a4:	1009883a 	mov	r4,r2
  8035a8:	180b883a 	mov	r5,r3
  8035ac:	2005883a 	mov	r2,r4
  8035b0:	2807883a 	mov	r3,r5
  8035b4:	100d883a 	mov	r6,r2
  8035b8:	180f883a 	mov	r7,r3
  8035bc:	8009883a 	mov	r4,r16
  8035c0:	880b883a 	mov	r5,r17
  8035c4:	08053100 	call	805310 <__ledf2>
  8035c8:	1000040e 	bge	r2,zero,8035dc <logic+0x334c>
  8035cc:	e13ffd17 	ldw	r4,-12(fp)
  8035d0:	20800617 	ldw	r2,24(r4)
  8035d4:	20c00717 	ldw	r3,28(r4)
  8035d8:	00000d06 	br	803610 <logic+0x3380>
  8035dc:	e13ffd17 	ldw	r4,-12(fp)
  8035e0:	20800017 	ldw	r2,0(r4)
  8035e4:	20c00117 	ldw	r3,4(r4)
  8035e8:	100d883a 	mov	r6,r2
  8035ec:	180f883a 	mov	r7,r3
  8035f0:	0009883a 	mov	r4,zero
  8035f4:	01502334 	movhi	r5,16524
  8035f8:	29480004 	addi	r5,r5,8192
  8035fc:	0805b1c0 	call	805b1c <__subdf3>
  803600:	1009883a 	mov	r4,r2
  803604:	180b883a 	mov	r5,r3
  803608:	2005883a 	mov	r2,r4
  80360c:	2807883a 	mov	r3,r5
  803610:	e13ffd17 	ldw	r4,-12(fp)
  803614:	20800615 	stw	r2,24(r4)
  803618:	20c00715 	stw	r3,28(r4)
  }
  d->_cg59 = d->_Pacemaker_local__Atrig2 || d->_Pacemaker_local__Atrig3 || d->_Pacemaker_local__Atrig4;
  80361c:	e0bffd17 	ldw	r2,-12(fp)
  803620:	10800983 	ldbu	r2,38(r2)
  803624:	10803fcc 	andi	r2,r2,255
  803628:	1080201c 	xori	r2,r2,128
  80362c:	10bfe004 	addi	r2,r2,-128
  803630:	10000c1e 	bne	r2,zero,803664 <logic+0x33d4>
  803634:	e0bffd17 	ldw	r2,-12(fp)
  803638:	108009c3 	ldbu	r2,39(r2)
  80363c:	10803fcc 	andi	r2,r2,255
  803640:	1080201c 	xori	r2,r2,128
  803644:	10bfe004 	addi	r2,r2,-128
  803648:	1000061e 	bne	r2,zero,803664 <logic+0x33d4>
  80364c:	e0bffd17 	ldw	r2,-12(fp)
  803650:	10800a03 	ldbu	r2,40(r2)
  803654:	10803fcc 	andi	r2,r2,255
  803658:	1080201c 	xori	r2,r2,128
  80365c:	10bfe004 	addi	r2,r2,-128
  803660:	10000226 	beq	r2,zero,80366c <logic+0x33dc>
  803664:	00800044 	movi	r2,1
  803668:	00000106 	br	803670 <logic+0x33e0>
  80366c:	0005883a 	mov	r2,zero
  803670:	1007883a 	mov	r3,r2
  803674:	e0bffd17 	ldw	r2,-12(fp)
  803678:	10c02205 	stb	r3,136(r2)
  d->_g7 = d->_g33_e4 && !d->_cg59 || d->_g61 && !d->_cg63;
  80367c:	e0bffd17 	ldw	r2,-12(fp)
  803680:	108028c3 	ldbu	r2,163(r2)
  803684:	10803fcc 	andi	r2,r2,255
  803688:	1080201c 	xori	r2,r2,128
  80368c:	10bfe004 	addi	r2,r2,-128
  803690:	10000626 	beq	r2,zero,8036ac <logic+0x341c>
  803694:	e0bffd17 	ldw	r2,-12(fp)
  803698:	10802203 	ldbu	r2,136(r2)
  80369c:	10803fcc 	andi	r2,r2,255
  8036a0:	1080201c 	xori	r2,r2,128
  8036a4:	10bfe004 	addi	r2,r2,-128
  8036a8:	10000c26 	beq	r2,zero,8036dc <logic+0x344c>
  8036ac:	e0bffd17 	ldw	r2,-12(fp)
  8036b0:	10801403 	ldbu	r2,80(r2)
  8036b4:	10803fcc 	andi	r2,r2,255
  8036b8:	1080201c 	xori	r2,r2,128
  8036bc:	10bfe004 	addi	r2,r2,-128
  8036c0:	10000826 	beq	r2,zero,8036e4 <logic+0x3454>
  8036c4:	e0bffd17 	ldw	r2,-12(fp)
  8036c8:	10802243 	ldbu	r2,137(r2)
  8036cc:	10803fcc 	andi	r2,r2,255
  8036d0:	1080201c 	xori	r2,r2,128
  8036d4:	10bfe004 	addi	r2,r2,-128
  8036d8:	1000021e 	bne	r2,zero,8036e4 <logic+0x3454>
  8036dc:	00800044 	movi	r2,1
  8036e0:	00000106 	br	8036e8 <logic+0x3458>
  8036e4:	0005883a 	mov	r2,zero
  8036e8:	1007883a 	mov	r3,r2
  8036ec:	e0bffd17 	ldw	r2,-12(fp)
  8036f0:	10c00ac5 	stb	r3,43(r2)
  d->_g7_e1 = d->_g32 && !d->_cg58;
  8036f4:	e0bffd17 	ldw	r2,-12(fp)
  8036f8:	10800f43 	ldbu	r2,61(r2)
  8036fc:	10803fcc 	andi	r2,r2,255
  803700:	1080201c 	xori	r2,r2,128
  803704:	10bfe004 	addi	r2,r2,-128
  803708:	10000826 	beq	r2,zero,80372c <logic+0x349c>
  80370c:	e0bffd17 	ldw	r2,-12(fp)
  803710:	108021c3 	ldbu	r2,135(r2)
  803714:	10803fcc 	andi	r2,r2,255
  803718:	1080201c 	xori	r2,r2,128
  80371c:	10bfe004 	addi	r2,r2,-128
  803720:	1000021e 	bne	r2,zero,80372c <logic+0x349c>
  803724:	00800044 	movi	r2,1
  803728:	00000106 	br	803730 <logic+0x34a0>
  80372c:	0005883a 	mov	r2,zero
  803730:	1007883a 	mov	r3,r2
  803734:	e0bffd17 	ldw	r2,-12(fp)
  803738:	10c02805 	stb	r3,160(r2)
  d->_cg68 = d->_Pacemaker_local__Atrig2 || d->_Pacemaker_local__Atrig3 || d->_Pacemaker_local__Atrig4;
  80373c:	e0bffd17 	ldw	r2,-12(fp)
  803740:	10800983 	ldbu	r2,38(r2)
  803744:	10803fcc 	andi	r2,r2,255
  803748:	1080201c 	xori	r2,r2,128
  80374c:	10bfe004 	addi	r2,r2,-128
  803750:	10000c1e 	bne	r2,zero,803784 <logic+0x34f4>
  803754:	e0bffd17 	ldw	r2,-12(fp)
  803758:	108009c3 	ldbu	r2,39(r2)
  80375c:	10803fcc 	andi	r2,r2,255
  803760:	1080201c 	xori	r2,r2,128
  803764:	10bfe004 	addi	r2,r2,-128
  803768:	1000061e 	bne	r2,zero,803784 <logic+0x34f4>
  80376c:	e0bffd17 	ldw	r2,-12(fp)
  803770:	10800a03 	ldbu	r2,40(r2)
  803774:	10803fcc 	andi	r2,r2,255
  803778:	1080201c 	xori	r2,r2,128
  80377c:	10bfe004 	addi	r2,r2,-128
  803780:	10000226 	beq	r2,zero,80378c <logic+0x34fc>
  803784:	00800044 	movi	r2,1
  803788:	00000106 	br	803790 <logic+0x3500>
  80378c:	0005883a 	mov	r2,zero
  803790:	1007883a 	mov	r3,r2
  803794:	e0bffd17 	ldw	r2,-12(fp)
  803798:	10c02305 	stb	r3,140(r2)
  d->_g38_e5 = d->_g62 && !d->_cg65 || d->_g7_e1 && !d->_cg68;
  80379c:	e0bffd17 	ldw	r2,-12(fp)
  8037a0:	10801443 	ldbu	r2,81(r2)
  8037a4:	10803fcc 	andi	r2,r2,255
  8037a8:	1080201c 	xori	r2,r2,128
  8037ac:	10bfe004 	addi	r2,r2,-128
  8037b0:	10000626 	beq	r2,zero,8037cc <logic+0x353c>
  8037b4:	e0bffd17 	ldw	r2,-12(fp)
  8037b8:	108022c3 	ldbu	r2,139(r2)
  8037bc:	10803fcc 	andi	r2,r2,255
  8037c0:	1080201c 	xori	r2,r2,128
  8037c4:	10bfe004 	addi	r2,r2,-128
  8037c8:	10000c26 	beq	r2,zero,8037fc <logic+0x356c>
  8037cc:	e0bffd17 	ldw	r2,-12(fp)
  8037d0:	10802803 	ldbu	r2,160(r2)
  8037d4:	10803fcc 	andi	r2,r2,255
  8037d8:	1080201c 	xori	r2,r2,128
  8037dc:	10bfe004 	addi	r2,r2,-128
  8037e0:	10000826 	beq	r2,zero,803804 <logic+0x3574>
  8037e4:	e0bffd17 	ldw	r2,-12(fp)
  8037e8:	10802303 	ldbu	r2,140(r2)
  8037ec:	10803fcc 	andi	r2,r2,255
  8037f0:	1080201c 	xori	r2,r2,128
  8037f4:	10bfe004 	addi	r2,r2,-128
  8037f8:	1000021e 	bne	r2,zero,803804 <logic+0x3574>
  8037fc:	00800044 	movi	r2,1
  803800:	00000106 	br	803808 <logic+0x3578>
  803804:	0005883a 	mov	r2,zero
  803808:	1007883a 	mov	r3,r2
  80380c:	e0bffd17 	ldw	r2,-12(fp)
  803810:	10c02905 	stb	r3,164(r2)
  d->_cg69 = d->_region0_Atrium_VentricleTimer < LRI_VALUE;
  803814:	e13ffd17 	ldw	r4,-12(fp)
  803818:	20800017 	ldw	r2,0(r4)
  80381c:	20c00117 	ldw	r3,4(r4)
  803820:	04000044 	movi	r16,1
  803824:	000d883a 	mov	r6,zero
  803828:	01d023b4 	movhi	r7,16526
  80382c:	39ec0004 	addi	r7,r7,-20480
  803830:	1009883a 	mov	r4,r2
  803834:	180b883a 	mov	r5,r3
  803838:	08053100 	call	805310 <__ledf2>
  80383c:	10000116 	blt	r2,zero,803844 <logic+0x35b4>
  803840:	0021883a 	mov	r16,zero
  803844:	8007883a 	mov	r3,r16
  803848:	e0bffd17 	ldw	r2,-12(fp)
  80384c:	10c02345 	stb	r3,141(r2)
  d->_g25_e3 = d->_g32 && d->_cg69;
  803850:	e0bffd17 	ldw	r2,-12(fp)
  803854:	10800f43 	ldbu	r2,61(r2)
  803858:	10803fcc 	andi	r2,r2,255
  80385c:	1080201c 	xori	r2,r2,128
  803860:	10bfe004 	addi	r2,r2,-128
  803864:	10000826 	beq	r2,zero,803888 <logic+0x35f8>
  803868:	e0bffd17 	ldw	r2,-12(fp)
  80386c:	10802343 	ldbu	r2,141(r2)
  803870:	10803fcc 	andi	r2,r2,255
  803874:	1080201c 	xori	r2,r2,128
  803878:	10bfe004 	addi	r2,r2,-128
  80387c:	10000226 	beq	r2,zero,803888 <logic+0x35f8>
  803880:	00800044 	movi	r2,1
  803884:	00000106 	br	80388c <logic+0x35fc>
  803888:	0005883a 	mov	r2,zero
  80388c:	1007883a 	mov	r3,r2
  803890:	e0bffd17 	ldw	r2,-12(fp)
  803894:	10c02885 	stb	r3,162(r2)
  if (d->_g25_e3) {
  803898:	e0bffd17 	ldw	r2,-12(fp)
  80389c:	10802883 	ldbu	r2,162(r2)
  8038a0:	10803fcc 	andi	r2,r2,255
  8038a4:	1080201c 	xori	r2,r2,128
  8038a8:	10bfe004 	addi	r2,r2,-128
  8038ac:	10002a26 	beq	r2,zero,803958 <logic+0x36c8>
    d->sleepT = (d->sleepT < (LRI_VALUE - d->_region0_Atrium_VentricleTimer)) ? d->sleepT : (LRI_VALUE - d->_region0_Atrium_VentricleTimer);
  8038b0:	e0bffd17 	ldw	r2,-12(fp)
  8038b4:	14000617 	ldw	r16,24(r2)
  8038b8:	14400717 	ldw	r17,28(r2)
  8038bc:	e13ffd17 	ldw	r4,-12(fp)
  8038c0:	20800017 	ldw	r2,0(r4)
  8038c4:	20c00117 	ldw	r3,4(r4)
  8038c8:	100d883a 	mov	r6,r2
  8038cc:	180f883a 	mov	r7,r3
  8038d0:	0009883a 	mov	r4,zero
  8038d4:	015023b4 	movhi	r5,16526
  8038d8:	296c0004 	addi	r5,r5,-20480
  8038dc:	0805b1c0 	call	805b1c <__subdf3>
  8038e0:	1009883a 	mov	r4,r2
  8038e4:	180b883a 	mov	r5,r3
  8038e8:	2005883a 	mov	r2,r4
  8038ec:	2807883a 	mov	r3,r5
  8038f0:	100d883a 	mov	r6,r2
  8038f4:	180f883a 	mov	r7,r3
  8038f8:	8009883a 	mov	r4,r16
  8038fc:	880b883a 	mov	r5,r17
  803900:	08053100 	call	805310 <__ledf2>
  803904:	1000040e 	bge	r2,zero,803918 <logic+0x3688>
  803908:	e13ffd17 	ldw	r4,-12(fp)
  80390c:	20800617 	ldw	r2,24(r4)
  803910:	20c00717 	ldw	r3,28(r4)
  803914:	00000d06 	br	80394c <logic+0x36bc>
  803918:	e13ffd17 	ldw	r4,-12(fp)
  80391c:	20800017 	ldw	r2,0(r4)
  803920:	20c00117 	ldw	r3,4(r4)
  803924:	100d883a 	mov	r6,r2
  803928:	180f883a 	mov	r7,r3
  80392c:	0009883a 	mov	r4,zero
  803930:	015023b4 	movhi	r5,16526
  803934:	296c0004 	addi	r5,r5,-20480
  803938:	0805b1c0 	call	805b1c <__subdf3>
  80393c:	1009883a 	mov	r4,r2
  803940:	180b883a 	mov	r5,r3
  803944:	2005883a 	mov	r2,r4
  803948:	2807883a 	mov	r3,r5
  80394c:	e13ffd17 	ldw	r4,-12(fp)
  803950:	20800615 	stw	r2,24(r4)
  803954:	20c00715 	stw	r3,28(r4)
  }
  d->_cg70 = d->_Pacemaker_local__Atrig2 || d->_Pacemaker_local__Atrig3 || d->_Pacemaker_local__Atrig4;
  803958:	e0bffd17 	ldw	r2,-12(fp)
  80395c:	10800983 	ldbu	r2,38(r2)
  803960:	10803fcc 	andi	r2,r2,255
  803964:	1080201c 	xori	r2,r2,128
  803968:	10bfe004 	addi	r2,r2,-128
  80396c:	10000c1e 	bne	r2,zero,8039a0 <logic+0x3710>
  803970:	e0bffd17 	ldw	r2,-12(fp)
  803974:	108009c3 	ldbu	r2,39(r2)
  803978:	10803fcc 	andi	r2,r2,255
  80397c:	1080201c 	xori	r2,r2,128
  803980:	10bfe004 	addi	r2,r2,-128
  803984:	1000061e 	bne	r2,zero,8039a0 <logic+0x3710>
  803988:	e0bffd17 	ldw	r2,-12(fp)
  80398c:	10800a03 	ldbu	r2,40(r2)
  803990:	10803fcc 	andi	r2,r2,255
  803994:	1080201c 	xori	r2,r2,128
  803998:	10bfe004 	addi	r2,r2,-128
  80399c:	10000226 	beq	r2,zero,8039a8 <logic+0x3718>
  8039a0:	00800044 	movi	r2,1
  8039a4:	00000106 	br	8039ac <logic+0x371c>
  8039a8:	0005883a 	mov	r2,zero
  8039ac:	1007883a 	mov	r3,r2
  8039b0:	e0bffd17 	ldw	r2,-12(fp)
  8039b4:	10c02385 	stb	r3,142(r2)
  d->_g14_e2 = d->_g25_e3 && !d->_cg70 || d->_g72 && !d->_cg74;
  8039b8:	e0bffd17 	ldw	r2,-12(fp)
  8039bc:	10802883 	ldbu	r2,162(r2)
  8039c0:	10803fcc 	andi	r2,r2,255
  8039c4:	1080201c 	xori	r2,r2,128
  8039c8:	10bfe004 	addi	r2,r2,-128
  8039cc:	10000626 	beq	r2,zero,8039e8 <logic+0x3758>
  8039d0:	e0bffd17 	ldw	r2,-12(fp)
  8039d4:	10802383 	ldbu	r2,142(r2)
  8039d8:	10803fcc 	andi	r2,r2,255
  8039dc:	1080201c 	xori	r2,r2,128
  8039e0:	10bfe004 	addi	r2,r2,-128
  8039e4:	10000c26 	beq	r2,zero,803a18 <logic+0x3788>
  8039e8:	e0bffd17 	ldw	r2,-12(fp)
  8039ec:	10801503 	ldbu	r2,84(r2)
  8039f0:	10803fcc 	andi	r2,r2,255
  8039f4:	1080201c 	xori	r2,r2,128
  8039f8:	10bfe004 	addi	r2,r2,-128
  8039fc:	10000826 	beq	r2,zero,803a20 <logic+0x3790>
  803a00:	e0bffd17 	ldw	r2,-12(fp)
  803a04:	108023c3 	ldbu	r2,143(r2)
  803a08:	10803fcc 	andi	r2,r2,255
  803a0c:	1080201c 	xori	r2,r2,128
  803a10:	10bfe004 	addi	r2,r2,-128
  803a14:	1000021e 	bne	r2,zero,803a20 <logic+0x3790>
  803a18:	00800044 	movi	r2,1
  803a1c:	00000106 	br	803a24 <logic+0x3794>
  803a20:	0005883a 	mov	r2,zero
  803a24:	1007883a 	mov	r3,r2
  803a28:	e0bffd17 	ldw	r2,-12(fp)
  803a2c:	10c02845 	stb	r3,161(r2)
  d->_g109 = d->_g32 && !d->_cg69;
  803a30:	e0bffd17 	ldw	r2,-12(fp)
  803a34:	10800f43 	ldbu	r2,61(r2)
  803a38:	10803fcc 	andi	r2,r2,255
  803a3c:	1080201c 	xori	r2,r2,128
  803a40:	10bfe004 	addi	r2,r2,-128
  803a44:	10000826 	beq	r2,zero,803a68 <logic+0x37d8>
  803a48:	e0bffd17 	ldw	r2,-12(fp)
  803a4c:	10802343 	ldbu	r2,141(r2)
  803a50:	10803fcc 	andi	r2,r2,255
  803a54:	1080201c 	xori	r2,r2,128
  803a58:	10bfe004 	addi	r2,r2,-128
  803a5c:	1000021e 	bne	r2,zero,803a68 <logic+0x37d8>
  803a60:	00800044 	movi	r2,1
  803a64:	00000106 	br	803a6c <logic+0x37dc>
  803a68:	0005883a 	mov	r2,zero
  803a6c:	1007883a 	mov	r3,r2
  803a70:	e0bffd17 	ldw	r2,-12(fp)
  803a74:	10c01a45 	stb	r3,105(r2)
  d->_cg79 = d->_Pacemaker_local__Atrig2 || d->_Pacemaker_local__Atrig3 || d->_Pacemaker_local__Atrig4;
  803a78:	e0bffd17 	ldw	r2,-12(fp)
  803a7c:	10800983 	ldbu	r2,38(r2)
  803a80:	10803fcc 	andi	r2,r2,255
  803a84:	1080201c 	xori	r2,r2,128
  803a88:	10bfe004 	addi	r2,r2,-128
  803a8c:	10000c1e 	bne	r2,zero,803ac0 <logic+0x3830>
  803a90:	e0bffd17 	ldw	r2,-12(fp)
  803a94:	108009c3 	ldbu	r2,39(r2)
  803a98:	10803fcc 	andi	r2,r2,255
  803a9c:	1080201c 	xori	r2,r2,128
  803aa0:	10bfe004 	addi	r2,r2,-128
  803aa4:	1000061e 	bne	r2,zero,803ac0 <logic+0x3830>
  803aa8:	e0bffd17 	ldw	r2,-12(fp)
  803aac:	10800a03 	ldbu	r2,40(r2)
  803ab0:	10803fcc 	andi	r2,r2,255
  803ab4:	1080201c 	xori	r2,r2,128
  803ab8:	10bfe004 	addi	r2,r2,-128
  803abc:	10000226 	beq	r2,zero,803ac8 <logic+0x3838>
  803ac0:	00800044 	movi	r2,1
  803ac4:	00000106 	br	803acc <logic+0x383c>
  803ac8:	0005883a 	mov	r2,zero
  803acc:	1007883a 	mov	r3,r2
  803ad0:	e0bffd17 	ldw	r2,-12(fp)
  803ad4:	10c02485 	stb	r3,146(r2)
  d->_g41 = d->_g73 && !d->_cg76 || d->_g109 && !d->_cg79;
  803ad8:	e0bffd17 	ldw	r2,-12(fp)
  803adc:	10801543 	ldbu	r2,85(r2)
  803ae0:	10803fcc 	andi	r2,r2,255
  803ae4:	1080201c 	xori	r2,r2,128
  803ae8:	10bfe004 	addi	r2,r2,-128
  803aec:	10000626 	beq	r2,zero,803b08 <logic+0x3878>
  803af0:	e0bffd17 	ldw	r2,-12(fp)
  803af4:	10802443 	ldbu	r2,145(r2)
  803af8:	10803fcc 	andi	r2,r2,255
  803afc:	1080201c 	xori	r2,r2,128
  803b00:	10bfe004 	addi	r2,r2,-128
  803b04:	10000c26 	beq	r2,zero,803b38 <logic+0x38a8>
  803b08:	e0bffd17 	ldw	r2,-12(fp)
  803b0c:	10801a43 	ldbu	r2,105(r2)
  803b10:	10803fcc 	andi	r2,r2,255
  803b14:	1080201c 	xori	r2,r2,128
  803b18:	10bfe004 	addi	r2,r2,-128
  803b1c:	10000826 	beq	r2,zero,803b40 <logic+0x38b0>
  803b20:	e0bffd17 	ldw	r2,-12(fp)
  803b24:	10802483 	ldbu	r2,146(r2)
  803b28:	10803fcc 	andi	r2,r2,255
  803b2c:	1080201c 	xori	r2,r2,128
  803b30:	10bfe004 	addi	r2,r2,-128
  803b34:	1000021e 	bne	r2,zero,803b40 <logic+0x38b0>
  803b38:	00800044 	movi	r2,1
  803b3c:	00000106 	br	803b44 <logic+0x38b4>
  803b40:	0005883a 	mov	r2,zero
  803b44:	1007883a 	mov	r3,r2
  803b48:	e0bffd17 	ldw	r2,-12(fp)
  803b4c:	10c01105 	stb	r3,68(r2)
  d->_cg80 = d->_Pacemaker_local__Atrig2 || d->_Pacemaker_local__Atrig3 || d->_Pacemaker_local__Atrig4;
  803b50:	e0bffd17 	ldw	r2,-12(fp)
  803b54:	10800983 	ldbu	r2,38(r2)
  803b58:	10803fcc 	andi	r2,r2,255
  803b5c:	1080201c 	xori	r2,r2,128
  803b60:	10bfe004 	addi	r2,r2,-128
  803b64:	10000c1e 	bne	r2,zero,803b98 <logic+0x3908>
  803b68:	e0bffd17 	ldw	r2,-12(fp)
  803b6c:	108009c3 	ldbu	r2,39(r2)
  803b70:	10803fcc 	andi	r2,r2,255
  803b74:	1080201c 	xori	r2,r2,128
  803b78:	10bfe004 	addi	r2,r2,-128
  803b7c:	1000061e 	bne	r2,zero,803b98 <logic+0x3908>
  803b80:	e0bffd17 	ldw	r2,-12(fp)
  803b84:	10800a03 	ldbu	r2,40(r2)
  803b88:	10803fcc 	andi	r2,r2,255
  803b8c:	1080201c 	xori	r2,r2,128
  803b90:	10bfe004 	addi	r2,r2,-128
  803b94:	10000226 	beq	r2,zero,803ba0 <logic+0x3910>
  803b98:	00800044 	movi	r2,1
  803b9c:	00000106 	br	803ba4 <logic+0x3914>
  803ba0:	0005883a 	mov	r2,zero
  803ba4:	1007883a 	mov	r3,r2
  803ba8:	e0bffd17 	ldw	r2,-12(fp)
  803bac:	10c024c5 	stb	r3,147(r2)
  d->_g45 = d->_g32 && !d->_cg80 || d->_g82 && !d->_cg82;
  803bb0:	e0bffd17 	ldw	r2,-12(fp)
  803bb4:	10800f43 	ldbu	r2,61(r2)
  803bb8:	10803fcc 	andi	r2,r2,255
  803bbc:	1080201c 	xori	r2,r2,128
  803bc0:	10bfe004 	addi	r2,r2,-128
  803bc4:	10000626 	beq	r2,zero,803be0 <logic+0x3950>
  803bc8:	e0bffd17 	ldw	r2,-12(fp)
  803bcc:	108024c3 	ldbu	r2,147(r2)
  803bd0:	10803fcc 	andi	r2,r2,255
  803bd4:	1080201c 	xori	r2,r2,128
  803bd8:	10bfe004 	addi	r2,r2,-128
  803bdc:	10000c26 	beq	r2,zero,803c10 <logic+0x3980>
  803be0:	e0bffd17 	ldw	r2,-12(fp)
  803be4:	10801603 	ldbu	r2,88(r2)
  803be8:	10803fcc 	andi	r2,r2,255
  803bec:	1080201c 	xori	r2,r2,128
  803bf0:	10bfe004 	addi	r2,r2,-128
  803bf4:	10000826 	beq	r2,zero,803c18 <logic+0x3988>
  803bf8:	e0bffd17 	ldw	r2,-12(fp)
  803bfc:	10802503 	ldbu	r2,148(r2)
  803c00:	10803fcc 	andi	r2,r2,255
  803c04:	1080201c 	xori	r2,r2,128
  803c08:	10bfe004 	addi	r2,r2,-128
  803c0c:	1000021e 	bne	r2,zero,803c18 <logic+0x3988>
  803c10:	00800044 	movi	r2,1
  803c14:	00000106 	br	803c1c <logic+0x398c>
  803c18:	0005883a 	mov	r2,zero
  803c1c:	1007883a 	mov	r3,r2
  803c20:	e0bffd17 	ldw	r2,-12(fp)
  803c24:	10c01145 	stb	r3,69(r2)
  d->_cg84 = d->_region0_Atrium_AtriumTimer < AVI_VALUE;
  803c28:	e13ffd17 	ldw	r4,-12(fp)
  803c2c:	20800217 	ldw	r2,8(r4)
  803c30:	20c00317 	ldw	r3,12(r4)
  803c34:	04000044 	movi	r16,1
  803c38:	000d883a 	mov	r6,zero
  803c3c:	01d01cf4 	movhi	r7,16499
  803c40:	39f00004 	addi	r7,r7,-16384
  803c44:	1009883a 	mov	r4,r2
  803c48:	180b883a 	mov	r5,r3
  803c4c:	08053100 	call	805310 <__ledf2>
  803c50:	10000116 	blt	r2,zero,803c58 <logic+0x39c8>
  803c54:	0021883a 	mov	r16,zero
  803c58:	8007883a 	mov	r3,r16
  803c5c:	e0bffd17 	ldw	r2,-12(fp)
  803c60:	10c02545 	stb	r3,149(r2)
  d->_g48 = d->_g32 && d->_cg84;
  803c64:	e0bffd17 	ldw	r2,-12(fp)
  803c68:	10800f43 	ldbu	r2,61(r2)
  803c6c:	10803fcc 	andi	r2,r2,255
  803c70:	1080201c 	xori	r2,r2,128
  803c74:	10bfe004 	addi	r2,r2,-128
  803c78:	10000826 	beq	r2,zero,803c9c <logic+0x3a0c>
  803c7c:	e0bffd17 	ldw	r2,-12(fp)
  803c80:	10802543 	ldbu	r2,149(r2)
  803c84:	10803fcc 	andi	r2,r2,255
  803c88:	1080201c 	xori	r2,r2,128
  803c8c:	10bfe004 	addi	r2,r2,-128
  803c90:	10000226 	beq	r2,zero,803c9c <logic+0x3a0c>
  803c94:	00800044 	movi	r2,1
  803c98:	00000106 	br	803ca0 <logic+0x3a10>
  803c9c:	0005883a 	mov	r2,zero
  803ca0:	1007883a 	mov	r3,r2
  803ca4:	e0bffd17 	ldw	r2,-12(fp)
  803ca8:	10c011c5 	stb	r3,71(r2)
  if (d->_g48) {
  803cac:	e0bffd17 	ldw	r2,-12(fp)
  803cb0:	108011c3 	ldbu	r2,71(r2)
  803cb4:	10803fcc 	andi	r2,r2,255
  803cb8:	1080201c 	xori	r2,r2,128
  803cbc:	10bfe004 	addi	r2,r2,-128
  803cc0:	10002a26 	beq	r2,zero,803d6c <logic+0x3adc>
    d->sleepT = (d->sleepT < (AVI_VALUE - d->_region0_Atrium_AtriumTimer)) ? d->sleepT : (AVI_VALUE - d->_region0_Atrium_AtriumTimer);
  803cc4:	e0bffd17 	ldw	r2,-12(fp)
  803cc8:	14000617 	ldw	r16,24(r2)
  803ccc:	14400717 	ldw	r17,28(r2)
  803cd0:	e13ffd17 	ldw	r4,-12(fp)
  803cd4:	20800217 	ldw	r2,8(r4)
  803cd8:	20c00317 	ldw	r3,12(r4)
  803cdc:	100d883a 	mov	r6,r2
  803ce0:	180f883a 	mov	r7,r3
  803ce4:	0009883a 	mov	r4,zero
  803ce8:	01501cf4 	movhi	r5,16499
  803cec:	29700004 	addi	r5,r5,-16384
  803cf0:	0805b1c0 	call	805b1c <__subdf3>
  803cf4:	1009883a 	mov	r4,r2
  803cf8:	180b883a 	mov	r5,r3
  803cfc:	2005883a 	mov	r2,r4
  803d00:	2807883a 	mov	r3,r5
  803d04:	100d883a 	mov	r6,r2
  803d08:	180f883a 	mov	r7,r3
  803d0c:	8009883a 	mov	r4,r16
  803d10:	880b883a 	mov	r5,r17
  803d14:	08053100 	call	805310 <__ledf2>
  803d18:	1000040e 	bge	r2,zero,803d2c <logic+0x3a9c>
  803d1c:	e13ffd17 	ldw	r4,-12(fp)
  803d20:	20800617 	ldw	r2,24(r4)
  803d24:	20c00717 	ldw	r3,28(r4)
  803d28:	00000d06 	br	803d60 <logic+0x3ad0>
  803d2c:	e13ffd17 	ldw	r4,-12(fp)
  803d30:	20800217 	ldw	r2,8(r4)
  803d34:	20c00317 	ldw	r3,12(r4)
  803d38:	100d883a 	mov	r6,r2
  803d3c:	180f883a 	mov	r7,r3
  803d40:	0009883a 	mov	r4,zero
  803d44:	01501cf4 	movhi	r5,16499
  803d48:	29700004 	addi	r5,r5,-16384
  803d4c:	0805b1c0 	call	805b1c <__subdf3>
  803d50:	1009883a 	mov	r4,r2
  803d54:	180b883a 	mov	r5,r3
  803d58:	2005883a 	mov	r2,r4
  803d5c:	2807883a 	mov	r3,r5
  803d60:	e13ffd17 	ldw	r4,-12(fp)
  803d64:	20800615 	stw	r2,24(r4)
  803d68:	20c00715 	stw	r3,28(r4)
  }
  d->_cg85 = d->_Pacemaker_local__Atrig2 || d->_Pacemaker_local__Atrig3 || d->_Pacemaker_local__Atrig4;
  803d6c:	e0bffd17 	ldw	r2,-12(fp)
  803d70:	10800983 	ldbu	r2,38(r2)
  803d74:	10803fcc 	andi	r2,r2,255
  803d78:	1080201c 	xori	r2,r2,128
  803d7c:	10bfe004 	addi	r2,r2,-128
  803d80:	10000c1e 	bne	r2,zero,803db4 <logic+0x3b24>
  803d84:	e0bffd17 	ldw	r2,-12(fp)
  803d88:	108009c3 	ldbu	r2,39(r2)
  803d8c:	10803fcc 	andi	r2,r2,255
  803d90:	1080201c 	xori	r2,r2,128
  803d94:	10bfe004 	addi	r2,r2,-128
  803d98:	1000061e 	bne	r2,zero,803db4 <logic+0x3b24>
  803d9c:	e0bffd17 	ldw	r2,-12(fp)
  803da0:	10800a03 	ldbu	r2,40(r2)
  803da4:	10803fcc 	andi	r2,r2,255
  803da8:	1080201c 	xori	r2,r2,128
  803dac:	10bfe004 	addi	r2,r2,-128
  803db0:	10000226 	beq	r2,zero,803dbc <logic+0x3b2c>
  803db4:	00800044 	movi	r2,1
  803db8:	00000106 	br	803dc0 <logic+0x3b30>
  803dbc:	0005883a 	mov	r2,zero
  803dc0:	1007883a 	mov	r3,r2
  803dc4:	e0bffd17 	ldw	r2,-12(fp)
  803dc8:	10c02585 	stb	r3,150(r2)
  d->_g52 = d->_g48 && !d->_cg85 || d->_g87 && !d->_cg89;
  803dcc:	e0bffd17 	ldw	r2,-12(fp)
  803dd0:	108011c3 	ldbu	r2,71(r2)
  803dd4:	10803fcc 	andi	r2,r2,255
  803dd8:	1080201c 	xori	r2,r2,128
  803ddc:	10bfe004 	addi	r2,r2,-128
  803de0:	10000626 	beq	r2,zero,803dfc <logic+0x3b6c>
  803de4:	e0bffd17 	ldw	r2,-12(fp)
  803de8:	10802583 	ldbu	r2,150(r2)
  803dec:	10803fcc 	andi	r2,r2,255
  803df0:	1080201c 	xori	r2,r2,128
  803df4:	10bfe004 	addi	r2,r2,-128
  803df8:	10000c26 	beq	r2,zero,803e2c <logic+0x3b9c>
  803dfc:	e0bffd17 	ldw	r2,-12(fp)
  803e00:	10801683 	ldbu	r2,90(r2)
  803e04:	10803fcc 	andi	r2,r2,255
  803e08:	1080201c 	xori	r2,r2,128
  803e0c:	10bfe004 	addi	r2,r2,-128
  803e10:	10000826 	beq	r2,zero,803e34 <logic+0x3ba4>
  803e14:	e0bffd17 	ldw	r2,-12(fp)
  803e18:	108025c3 	ldbu	r2,151(r2)
  803e1c:	10803fcc 	andi	r2,r2,255
  803e20:	1080201c 	xori	r2,r2,128
  803e24:	10bfe004 	addi	r2,r2,-128
  803e28:	1000021e 	bne	r2,zero,803e34 <logic+0x3ba4>
  803e2c:	00800044 	movi	r2,1
  803e30:	00000106 	br	803e38 <logic+0x3ba8>
  803e34:	0005883a 	mov	r2,zero
  803e38:	1007883a 	mov	r3,r2
  803e3c:	e0bffd17 	ldw	r2,-12(fp)
  803e40:	10c01285 	stb	r3,74(r2)
  d->_g57 = d->_g32 && !d->_cg84;
  803e44:	e0bffd17 	ldw	r2,-12(fp)
  803e48:	10800f43 	ldbu	r2,61(r2)
  803e4c:	10803fcc 	andi	r2,r2,255
  803e50:	1080201c 	xori	r2,r2,128
  803e54:	10bfe004 	addi	r2,r2,-128
  803e58:	10000826 	beq	r2,zero,803e7c <logic+0x3bec>
  803e5c:	e0bffd17 	ldw	r2,-12(fp)
  803e60:	10802543 	ldbu	r2,149(r2)
  803e64:	10803fcc 	andi	r2,r2,255
  803e68:	1080201c 	xori	r2,r2,128
  803e6c:	10bfe004 	addi	r2,r2,-128
  803e70:	1000021e 	bne	r2,zero,803e7c <logic+0x3bec>
  803e74:	00800044 	movi	r2,1
  803e78:	00000106 	br	803e80 <logic+0x3bf0>
  803e7c:	0005883a 	mov	r2,zero
  803e80:	1007883a 	mov	r3,r2
  803e84:	e0bffd17 	ldw	r2,-12(fp)
  803e88:	10c01385 	stb	r3,78(r2)
  d->_cg94 = d->_Pacemaker_local__Atrig2 || d->_Pacemaker_local__Atrig3 || d->_Pacemaker_local__Atrig4;
  803e8c:	e0bffd17 	ldw	r2,-12(fp)
  803e90:	10800983 	ldbu	r2,38(r2)
  803e94:	10803fcc 	andi	r2,r2,255
  803e98:	1080201c 	xori	r2,r2,128
  803e9c:	10bfe004 	addi	r2,r2,-128
  803ea0:	10000c1e 	bne	r2,zero,803ed4 <logic+0x3c44>
  803ea4:	e0bffd17 	ldw	r2,-12(fp)
  803ea8:	108009c3 	ldbu	r2,39(r2)
  803eac:	10803fcc 	andi	r2,r2,255
  803eb0:	1080201c 	xori	r2,r2,128
  803eb4:	10bfe004 	addi	r2,r2,-128
  803eb8:	1000061e 	bne	r2,zero,803ed4 <logic+0x3c44>
  803ebc:	e0bffd17 	ldw	r2,-12(fp)
  803ec0:	10800a03 	ldbu	r2,40(r2)
  803ec4:	10803fcc 	andi	r2,r2,255
  803ec8:	1080201c 	xori	r2,r2,128
  803ecc:	10bfe004 	addi	r2,r2,-128
  803ed0:	10000226 	beq	r2,zero,803edc <logic+0x3c4c>
  803ed4:	00800044 	movi	r2,1
  803ed8:	00000106 	br	803ee0 <logic+0x3c50>
  803edc:	0005883a 	mov	r2,zero
  803ee0:	1007883a 	mov	r3,r2
  803ee4:	e0bffd17 	ldw	r2,-12(fp)
  803ee8:	10c02685 	stb	r3,154(r2)
  d->_g54 = d->_g88 && !d->_cg91 || d->_g57 && !d->_cg94;
  803eec:	e0bffd17 	ldw	r2,-12(fp)
  803ef0:	108016c3 	ldbu	r2,91(r2)
  803ef4:	10803fcc 	andi	r2,r2,255
  803ef8:	1080201c 	xori	r2,r2,128
  803efc:	10bfe004 	addi	r2,r2,-128
  803f00:	10000626 	beq	r2,zero,803f1c <logic+0x3c8c>
  803f04:	e0bffd17 	ldw	r2,-12(fp)
  803f08:	10802643 	ldbu	r2,153(r2)
  803f0c:	10803fcc 	andi	r2,r2,255
  803f10:	1080201c 	xori	r2,r2,128
  803f14:	10bfe004 	addi	r2,r2,-128
  803f18:	10000c26 	beq	r2,zero,803f4c <logic+0x3cbc>
  803f1c:	e0bffd17 	ldw	r2,-12(fp)
  803f20:	10801383 	ldbu	r2,78(r2)
  803f24:	10803fcc 	andi	r2,r2,255
  803f28:	1080201c 	xori	r2,r2,128
  803f2c:	10bfe004 	addi	r2,r2,-128
  803f30:	10000826 	beq	r2,zero,803f54 <logic+0x3cc4>
  803f34:	e0bffd17 	ldw	r2,-12(fp)
  803f38:	10802683 	ldbu	r2,154(r2)
  803f3c:	10803fcc 	andi	r2,r2,255
  803f40:	1080201c 	xori	r2,r2,128
  803f44:	10bfe004 	addi	r2,r2,-128
  803f48:	1000021e 	bne	r2,zero,803f54 <logic+0x3cc4>
  803f4c:	00800044 	movi	r2,1
  803f50:	00000106 	br	803f58 <logic+0x3cc8>
  803f54:	0005883a 	mov	r2,zero
  803f58:	1007883a 	mov	r3,r2
  803f5c:	e0bffd17 	ldw	r2,-12(fp)
  803f60:	10c01305 	stb	r3,76(r2)
  d->_g59 = d->_g32 || d->_g100 && !d->_cg102;
  803f64:	e0bffd17 	ldw	r2,-12(fp)
  803f68:	10800f43 	ldbu	r2,61(r2)
  803f6c:	10803fcc 	andi	r2,r2,255
  803f70:	1080201c 	xori	r2,r2,128
  803f74:	10bfe004 	addi	r2,r2,-128
  803f78:	10000c1e 	bne	r2,zero,803fac <logic+0x3d1c>
  803f7c:	e0bffd17 	ldw	r2,-12(fp)
  803f80:	10801843 	ldbu	r2,97(r2)
  803f84:	10803fcc 	andi	r2,r2,255
  803f88:	1080201c 	xori	r2,r2,128
  803f8c:	10bfe004 	addi	r2,r2,-128
  803f90:	10000826 	beq	r2,zero,803fb4 <logic+0x3d24>
  803f94:	e0bffd17 	ldw	r2,-12(fp)
  803f98:	108026c3 	ldbu	r2,155(r2)
  803f9c:	10803fcc 	andi	r2,r2,255
  803fa0:	1080201c 	xori	r2,r2,128
  803fa4:	10bfe004 	addi	r2,r2,-128
  803fa8:	1000021e 	bne	r2,zero,803fb4 <logic+0x3d24>
  803fac:	00800044 	movi	r2,1
  803fb0:	00000106 	br	803fb8 <logic+0x3d28>
  803fb4:	0005883a 	mov	r2,zero
  803fb8:	1007883a 	mov	r3,r2
  803fbc:	e0bffd17 	ldw	r2,-12(fp)
  803fc0:	10c013c5 	stb	r3,79(r2)
}
  803fc4:	0001883a 	nop
  803fc8:	e6fffe04 	addi	sp,fp,-8
  803fcc:	dfc00317 	ldw	ra,12(sp)
  803fd0:	df000217 	ldw	fp,8(sp)
  803fd4:	dc400117 	ldw	r17,4(sp)
  803fd8:	dc000017 	ldw	r16,0(sp)
  803fdc:	dec00404 	addi	sp,sp,16
  803fe0:	f800283a 	ret

00803fe4 <reset>:

void reset(TickData* d) {
  803fe4:	defffe04 	addi	sp,sp,-8
  803fe8:	df000115 	stw	fp,4(sp)
  803fec:	df000104 	addi	fp,sp,4
  803ff0:	e13fff15 	stw	r4,-4(fp)
  d->_GO = 1;
  803ff4:	e0bfff17 	ldw	r2,-4(fp)
  803ff8:	00c00044 	movi	r3,1
  803ffc:	10c01ac5 	stb	r3,107(r2)
  d->_TERM = 0;
  804000:	e0bfff17 	ldw	r2,-4(fp)
  804004:	10002b05 	stb	zero,172(r2)
  d->_region0_Atrium_VentricleTimer = 0.0;
  804008:	e0bfff17 	ldw	r2,-4(fp)
  80400c:	10000015 	stw	zero,0(r2)
  804010:	10000115 	stw	zero,4(r2)
  d->_region0_Atrium_AtriumTimer = 0.0;
  804014:	e0bfff17 	ldw	r2,-4(fp)
  804018:	10000215 	stw	zero,8(r2)
  80401c:	10000315 	stw	zero,12(r2)
  d->deltaT = 0.0;
  804020:	e0bfff17 	ldw	r2,-4(fp)
  804024:	10000415 	stw	zero,16(r2)
  804028:	10000515 	stw	zero,20(r2)
  d->sleepT = 0.0;
  80402c:	e0bfff17 	ldw	r2,-4(fp)
  804030:	10000615 	stw	zero,24(r2)
  804034:	10000715 	stw	zero,28(r2)
  d->_pg36 = 0;
  804038:	e0bfff17 	ldw	r2,-4(fp)
  80403c:	10002b45 	stb	zero,173(r2)
  d->_pg59 = 0;
  804040:	e0bfff17 	ldw	r2,-4(fp)
  804044:	10002b85 	stb	zero,174(r2)
  d->_pg45 = 0;
  804048:	e0bfff17 	ldw	r2,-4(fp)
  80404c:	10002bc5 	stb	zero,175(r2)
  d->_pg14 = 0;
  804050:	e0bfff17 	ldw	r2,-4(fp)
  804054:	10002c05 	stb	zero,176(r2)
  d->_pg33 = 0;
  804058:	e0bfff17 	ldw	r2,-4(fp)
  80405c:	10002c45 	stb	zero,177(r2)
  d->_pg38_e5 = 0;
  804060:	e0bfff17 	ldw	r2,-4(fp)
  804064:	10002c85 	stb	zero,178(r2)
  d->_pg7 = 0;
  804068:	e0bfff17 	ldw	r2,-4(fp)
  80406c:	10002cc5 	stb	zero,179(r2)
  d->_pg41 = 0;
  804070:	e0bfff17 	ldw	r2,-4(fp)
  804074:	10002d05 	stb	zero,180(r2)
  d->_pg14_e2 = 0;
  804078:	e0bfff17 	ldw	r2,-4(fp)
  80407c:	10002d45 	stb	zero,181(r2)
  d->_pg54 = 0;
  804080:	e0bfff17 	ldw	r2,-4(fp)
  804084:	10002d85 	stb	zero,182(r2)
  d->_pg52 = 0;
  804088:	e0bfff17 	ldw	r2,-4(fp)
  80408c:	10002dc5 	stb	zero,183(r2)
  d->_pg64_e3 = 0;
  804090:	e0bfff17 	ldw	r2,-4(fp)
  804094:	10002e05 	stb	zero,184(r2)
  d->_pg99_e7 = 0;
  804098:	e0bfff17 	ldw	r2,-4(fp)
  80409c:	10002e45 	stb	zero,185(r2)
  d->_pg3 = 0;
  8040a0:	e0bfff17 	ldw	r2,-4(fp)
  8040a4:	10002e85 	stb	zero,186(r2)
  d->_pg108 = 0;
  8040a8:	e0bfff17 	ldw	r2,-4(fp)
  8040ac:	10002ec5 	stb	zero,187(r2)
  d->_pg13 = 0;
  8040b0:	e0bfff17 	ldw	r2,-4(fp)
  8040b4:	10002f05 	stb	zero,188(r2)
  d->_pg20 = 0;
  8040b8:	e0bfff17 	ldw	r2,-4(fp)
  8040bc:	10002f45 	stb	zero,189(r2)
  d->_pg26 = 0;
  8040c0:	e0bfff17 	ldw	r2,-4(fp)
  8040c4:	10002f85 	stb	zero,190(r2)
  d->_pg31 = 0;
  8040c8:	e0bfff17 	ldw	r2,-4(fp)
  8040cc:	10002fc5 	stb	zero,191(r2)
}
  8040d0:	0001883a 	nop
  8040d4:	e037883a 	mov	sp,fp
  8040d8:	df000017 	ldw	fp,0(sp)
  8040dc:	dec00104 	addi	sp,sp,4
  8040e0:	f800283a 	ret

008040e4 <tick>:

void tick(TickData* d) {
  8040e4:	defffd04 	addi	sp,sp,-12
  8040e8:	dfc00215 	stw	ra,8(sp)
  8040ec:	df000115 	stw	fp,4(sp)
  8040f0:	df000104 	addi	fp,sp,4
  8040f4:	e13fff15 	stw	r4,-4(fp)
  logic(d);
  8040f8:	e13fff17 	ldw	r4,-4(fp)
  8040fc:	08002900 	call	800290 <logic>

  d->_pg36 = d->_g36;
  804100:	e0bfff17 	ldw	r2,-4(fp)
  804104:	10c00fc3 	ldbu	r3,63(r2)
  804108:	e0bfff17 	ldw	r2,-4(fp)
  80410c:	10c02b45 	stb	r3,173(r2)
  d->_pg59 = d->_g59;
  804110:	e0bfff17 	ldw	r2,-4(fp)
  804114:	10c013c3 	ldbu	r3,79(r2)
  804118:	e0bfff17 	ldw	r2,-4(fp)
  80411c:	10c02b85 	stb	r3,174(r2)
  d->_pg45 = d->_g45;
  804120:	e0bfff17 	ldw	r2,-4(fp)
  804124:	10c01143 	ldbu	r3,69(r2)
  804128:	e0bfff17 	ldw	r2,-4(fp)
  80412c:	10c02bc5 	stb	r3,175(r2)
  d->_pg14 = d->_g14;
  804130:	e0bfff17 	ldw	r2,-4(fp)
  804134:	10c00c03 	ldbu	r3,48(r2)
  804138:	e0bfff17 	ldw	r2,-4(fp)
  80413c:	10c02c05 	stb	r3,176(r2)
  d->_pg33 = d->_g33;
  804140:	e0bfff17 	ldw	r2,-4(fp)
  804144:	10c00f83 	ldbu	r3,62(r2)
  804148:	e0bfff17 	ldw	r2,-4(fp)
  80414c:	10c02c45 	stb	r3,177(r2)
  d->_pg38_e5 = d->_g38_e5;
  804150:	e0bfff17 	ldw	r2,-4(fp)
  804154:	10c02903 	ldbu	r3,164(r2)
  804158:	e0bfff17 	ldw	r2,-4(fp)
  80415c:	10c02c85 	stb	r3,178(r2)
  d->_pg7 = d->_g7;
  804160:	e0bfff17 	ldw	r2,-4(fp)
  804164:	10c00ac3 	ldbu	r3,43(r2)
  804168:	e0bfff17 	ldw	r2,-4(fp)
  80416c:	10c02cc5 	stb	r3,179(r2)
  d->_pg41 = d->_g41;
  804170:	e0bfff17 	ldw	r2,-4(fp)
  804174:	10c01103 	ldbu	r3,68(r2)
  804178:	e0bfff17 	ldw	r2,-4(fp)
  80417c:	10c02d05 	stb	r3,180(r2)
  d->_pg14_e2 = d->_g14_e2;
  804180:	e0bfff17 	ldw	r2,-4(fp)
  804184:	10c02843 	ldbu	r3,161(r2)
  804188:	e0bfff17 	ldw	r2,-4(fp)
  80418c:	10c02d45 	stb	r3,181(r2)
  d->_pg54 = d->_g54;
  804190:	e0bfff17 	ldw	r2,-4(fp)
  804194:	10c01303 	ldbu	r3,76(r2)
  804198:	e0bfff17 	ldw	r2,-4(fp)
  80419c:	10c02d85 	stb	r3,182(r2)
  d->_pg52 = d->_g52;
  8041a0:	e0bfff17 	ldw	r2,-4(fp)
  8041a4:	10c01283 	ldbu	r3,74(r2)
  8041a8:	e0bfff17 	ldw	r2,-4(fp)
  8041ac:	10c02dc5 	stb	r3,183(r2)
  d->_pg64_e3 = d->_g64_e3;
  8041b0:	e0bfff17 	ldw	r2,-4(fp)
  8041b4:	10c029c3 	ldbu	r3,167(r2)
  8041b8:	e0bfff17 	ldw	r2,-4(fp)
  8041bc:	10c02e05 	stb	r3,184(r2)
  d->_pg99_e7 = d->_g99_e7;
  8041c0:	e0bfff17 	ldw	r2,-4(fp)
  8041c4:	10c02ac3 	ldbu	r3,171(r2)
  8041c8:	e0bfff17 	ldw	r2,-4(fp)
  8041cc:	10c02e45 	stb	r3,185(r2)
  d->_pg3 = d->_g3;
  8041d0:	e0bfff17 	ldw	r2,-4(fp)
  8041d4:	10c00a43 	ldbu	r3,41(r2)
  8041d8:	e0bfff17 	ldw	r2,-4(fp)
  8041dc:	10c02e85 	stb	r3,186(r2)
  d->_pg108 = d->_g108;
  8041e0:	e0bfff17 	ldw	r2,-4(fp)
  8041e4:	10c01a03 	ldbu	r3,104(r2)
  8041e8:	e0bfff17 	ldw	r2,-4(fp)
  8041ec:	10c02ec5 	stb	r3,187(r2)
  d->_pg13 = d->_g13;
  8041f0:	e0bfff17 	ldw	r2,-4(fp)
  8041f4:	10c00bc3 	ldbu	r3,47(r2)
  8041f8:	e0bfff17 	ldw	r2,-4(fp)
  8041fc:	10c02f05 	stb	r3,188(r2)
  d->_pg20 = d->_g20;
  804200:	e0bfff17 	ldw	r2,-4(fp)
  804204:	10c00d03 	ldbu	r3,52(r2)
  804208:	e0bfff17 	ldw	r2,-4(fp)
  80420c:	10c02f45 	stb	r3,189(r2)
  d->_pg26 = d->_g26;
  804210:	e0bfff17 	ldw	r2,-4(fp)
  804214:	10c00e43 	ldbu	r3,57(r2)
  804218:	e0bfff17 	ldw	r2,-4(fp)
  80421c:	10c02f85 	stb	r3,190(r2)
  d->_pg31 = d->_g31;
  804220:	e0bfff17 	ldw	r2,-4(fp)
  804224:	10c00f03 	ldbu	r3,60(r2)
  804228:	e0bfff17 	ldw	r2,-4(fp)
  80422c:	10c02fc5 	stb	r3,191(r2)
  d->_GO = 0;
  804230:	e0bfff17 	ldw	r2,-4(fp)
  804234:	10001ac5 	stb	zero,107(r2)
}
  804238:	0001883a 	nop
  80423c:	e037883a 	mov	sp,fp
  804240:	dfc00117 	ldw	ra,4(sp)
  804244:	df000017 	ldw	fp,0(sp)
  804248:	dec00204 	addi	sp,sp,8
  80424c:	f800283a 	ret

00804250 <timerISR>:
#include "../inc/chart.h"
#include "../inc/state.h"
#include "../inc/defines.h"

// ISR for pacemaker timing
alt_u32 timerISR(void* context){
  804250:	defffd04 	addi	sp,sp,-12
  804254:	df000215 	stw	fp,8(sp)
  804258:	df000204 	addi	fp,sp,8
  80425c:	e13fff15 	stw	r4,-4(fp)
	int* timeCount = (int*) context;
  804260:	e0bfff17 	ldw	r2,-4(fp)
  804264:	e0bffe15 	stw	r2,-8(fp)
	(*timeCount)++;
  804268:	e0bffe17 	ldw	r2,-8(fp)
  80426c:	10800017 	ldw	r2,0(r2)
  804270:	10c00044 	addi	r3,r2,1
  804274:	e0bffe17 	ldw	r2,-8(fp)
  804278:	10c00015 	stw	r3,0(r2)
	return 1; // next time out is 1ms
  80427c:	00800044 	movi	r2,1
}
  804280:	e037883a 	mov	sp,fp
  804284:	df000017 	ldw	fp,0(sp)
  804288:	dec00104 	addi	sp,sp,4
  80428c:	f800283a 	ret

00804290 <main>:

void updateUARTOutputs();
void updateLEDOutputs();

int main()
{
  804290:	deffb904 	addi	sp,sp,-284
  804294:	dfc04615 	stw	ra,280(sp)
  804298:	df004515 	stw	fp,276(sp)
  80429c:	df004504 	addi	fp,sp,276
	// Pacemaker init
	uint8_t state = -1;
  8042a0:	00bfffc4 	movi	r2,-1
  8042a4:	e0bfc705 	stb	r2,-228(fp)

	// Button init
	int key = 0;
  8042a8:	e03fc515 	stw	zero,-236(fp)
	IOWR_ALTERA_AVALON_PIO_IRQ_MASK(KEYS_BASE, 0x7);
  8042ac:	00c001c4 	movi	r3,7
  8042b0:	00804074 	movhi	r2,257
  8042b4:	10842a04 	addi	r2,r2,4264
  8042b8:	10c00035 	stwio	r3,0(r2)

	// SC Chart Init
	TickData data;
	reset(&data);
  8042bc:	e0bfc804 	addi	r2,fp,-224
  8042c0:	1009883a 	mov	r4,r2
  8042c4:	0803fe40 	call	803fe4 <reset>
	tick(&data);
  8042c8:	e0bfc804 	addi	r2,fp,-224
  8042cc:	1009883a 	mov	r4,r2
  8042d0:	08040e40 	call	8040e4 <tick>

	// Timer Init
	uint64_t systemTime = 0;
  8042d4:	e03ff815 	stw	zero,-32(fp)
  8042d8:	e03ff915 	stw	zero,-28(fp)
	uint64_t prevTime = 0;
  8042dc:	e03fbb15 	stw	zero,-276(fp)
  8042e0:	e03fbc15 	stw	zero,-272(fp)
	uint64_t apTime = -1;
  8042e4:	00bfffc4 	movi	r2,-1
  8042e8:	e0bfbd15 	stw	r2,-268(fp)
  8042ec:	00bfffc4 	movi	r2,-1
  8042f0:	e0bfbe15 	stw	r2,-264(fp)
	uint64_t vpTime = -1;
  8042f4:	00bfffc4 	movi	r2,-1
  8042f8:	e0bfbf15 	stw	r2,-260(fp)
  8042fc:	00bfffc4 	movi	r2,-1
  804300:	e0bfc015 	stw	r2,-256(fp)
	uint64_t asTime = -1;
  804304:	00bfffc4 	movi	r2,-1
  804308:	e0bfc115 	stw	r2,-252(fp)
  80430c:	00bfffc4 	movi	r2,-1
  804310:	e0bfc215 	stw	r2,-248(fp)
	uint64_t vsTime = -1;
  804314:	00bfffc4 	movi	r2,-1
  804318:	e0bfc315 	stw	r2,-244(fp)
  80431c:	00bfffc4 	movi	r2,-1
  804320:	e0bfc415 	stw	r2,-240(fp)

	alt_alarm ticker;
	void* timerContext = (void*) &systemTime;
  804324:	e0bff804 	addi	r2,fp,-32
  804328:	e0bfc615 	stw	r2,-232(fp)
	alt_alarm_start(&ticker, 1, timerISR, timerContext);
  80432c:	e0bffa04 	addi	r2,fp,-24
  804330:	e1ffc617 	ldw	r7,-232(fp)
  804334:	01802034 	movhi	r6,128
  804338:	31909404 	addi	r6,r6,16976
  80433c:	01400044 	movi	r5,1
  804340:	1009883a 	mov	r4,r2
  804344:	0809b080 	call	809b08 <alt_alarm_start>


	// Reset LED
	IOWR_ALTERA_AVALON_PIO_DATA(LEDS_GREEN_BASE, 0x00);
  804348:	0007883a 	mov	r3,zero
  80434c:	00804074 	movhi	r2,257
  804350:	10841c04 	addi	r2,r2,4208
  804354:	10c00035 	stwio	r3,0(r2)

	while(1){
		// update Time
	    data.deltaT = systemTime - prevTime;
  804358:	e13ff817 	ldw	r4,-32(fp)
  80435c:	e17ff917 	ldw	r5,-28(fp)
  804360:	e1bfbb17 	ldw	r6,-276(fp)
  804364:	e1ffbc17 	ldw	r7,-272(fp)
  804368:	2185c83a 	sub	r2,r4,r6
  80436c:	2091803a 	cmpltu	r8,r4,r2
  804370:	29c7c83a 	sub	r3,r5,r7
  804374:	1a09c83a 	sub	r4,r3,r8
  804378:	2007883a 	mov	r3,r4
  80437c:	100b883a 	mov	r5,r2
  804380:	180d883a 	mov	r6,r3
  804384:	2809883a 	mov	r4,r5
  804388:	300b883a 	mov	r5,r6
  80438c:	08049180 	call	804918 <__floatundidf>
  804390:	1009883a 	mov	r4,r2
  804394:	180b883a 	mov	r5,r3
  804398:	e13fcc15 	stw	r4,-208(fp)
  80439c:	e17fcd15 	stw	r5,-204(fp)
	    prevTime = systemTime;
  8043a0:	e0bff817 	ldw	r2,-32(fp)
  8043a4:	e0bfbb15 	stw	r2,-276(fp)
  8043a8:	e0bff917 	ldw	r2,-28(fp)
  8043ac:	e0bfbc15 	stw	r2,-272(fp)

	    // Update State
	    updateState(&state);
  8043b0:	e0bfc704 	addi	r2,fp,-228
  8043b4:	1009883a 	mov	r4,r2
  8043b8:	08048000 	call	804800 <updateState>

	    // Update Inputs
	    switch ((state >> INPUT) & 0b1)
  8043bc:	e0bfc703 	ldbu	r2,-228(fp)
  8043c0:	10803fcc 	andi	r2,r2,255
  8043c4:	1004d07a 	srli	r2,r2,1
  8043c8:	10803fcc 	andi	r2,r2,255
  8043cc:	1080004c 	andi	r2,r2,1
  8043d0:	10000326 	beq	r2,zero,8043e0 <main+0x150>
  8043d4:	10800060 	cmpeqi	r2,r2,1
  8043d8:	1000091e 	bne	r2,zero,804400 <main+0x170>
  8043dc:	00001006 	br	804420 <main+0x190>
	    {
	    case BUTTONS:
	    	updateButtonInputs(&(data.AS), &(data.VS));
  8043e0:	e0bfc804 	addi	r2,fp,-224
  8043e4:	10c00844 	addi	r3,r2,33
  8043e8:	e0bfc804 	addi	r2,fp,-224
  8043ec:	10800804 	addi	r2,r2,32
  8043f0:	180b883a 	mov	r5,r3
  8043f4:	1009883a 	mov	r4,r2
  8043f8:	08046e80 	call	8046e8 <updateButtonInputs>
	    	break;
  8043fc:	00000806 	br	804420 <main+0x190>
	    case UART:
	    	updateUartInputs(&(data.AS), &(data.VS));
  804400:	e0bfc804 	addi	r2,fp,-224
  804404:	10c00844 	addi	r3,r2,33
  804408:	e0bfc804 	addi	r2,fp,-224
  80440c:	10800804 	addi	r2,r2,32
  804410:	180b883a 	mov	r5,r3
  804414:	1009883a 	mov	r4,r2
  804418:	08047740 	call	804774 <updateUartInputs>
	    	break;
  80441c:	0001883a 	nop
	    }

	    // Update Pacemaker
	    switch (state & 0b1){
  804420:	e0bfc703 	ldbu	r2,-228(fp)
  804424:	10803fcc 	andi	r2,r2,255
  804428:	1080004c 	andi	r2,r2,1
  80442c:	10000326 	beq	r2,zero,80443c <main+0x1ac>
  804430:	10800060 	cmpeqi	r2,r2,1
  804434:	1000091e 	bne	r2,zero,80445c <main+0x1cc>
  804438:	00000406 	br	80444c <main+0x1bc>
	    case CHART:
	    	tick(&data);
  80443c:	e0bfc804 	addi	r2,fp,-224
  804440:	1009883a 	mov	r4,r2
  804444:	08040e40 	call	8040e4 <tick>
	    	break;
  804448:	00000506 	br	804460 <main+0x1d0>
	    case CODE:
	    	break;
	    default:
			tick(&data);
  80444c:	e0bfc804 	addi	r2,fp,-224
  804450:	1009883a 	mov	r4,r2
  804454:	08040e40 	call	8040e4 <tick>
	    	break;
  804458:	00000106 	br	804460 <main+0x1d0>
	    switch (state & 0b1){
	    case CHART:
	    	tick(&data);
	    	break;
	    case CODE:
	    	break;
  80445c:	0001883a 	nop
	    	break;
	    }


	    // UART Output
	    if (((state >> INPUT) & 0b1) == UART) {
  804460:	e0bfc703 	ldbu	r2,-228(fp)
  804464:	10803fcc 	andi	r2,r2,255
  804468:	1004d07a 	srli	r2,r2,1
  80446c:	10803fcc 	andi	r2,r2,255
  804470:	1080004c 	andi	r2,r2,1
  804474:	10001326 	beq	r2,zero,8044c4 <main+0x234>
	    	if (data.AP){
  804478:	e0bfd083 	ldbu	r2,-190(fp)
  80447c:	10803fcc 	andi	r2,r2,255
  804480:	1080201c 	xori	r2,r2,128
  804484:	10bfe004 	addi	r2,r2,-128
  804488:	10000526 	beq	r2,zero,8044a0 <main+0x210>
	    		IOWR_ALTERA_AVALON_UART_TXDATA(UART_BASE, 'A');
  80448c:	00c01044 	movi	r3,65
  804490:	00804074 	movhi	r2,257
  804494:	10841104 	addi	r2,r2,4164
  804498:	10c00035 	stwio	r3,0(r2)
  80449c:	00000906 	br	8044c4 <main+0x234>
	    	} else if (data.VP){
  8044a0:	e0bfd0c3 	ldbu	r2,-189(fp)
  8044a4:	10803fcc 	andi	r2,r2,255
  8044a8:	1080201c 	xori	r2,r2,128
  8044ac:	10bfe004 	addi	r2,r2,-128
  8044b0:	10000426 	beq	r2,zero,8044c4 <main+0x234>
	    		IOWR_ALTERA_AVALON_UART_TXDATA(UART_BASE, 'V');
  8044b4:	00c01584 	movi	r3,86
  8044b8:	00804074 	movhi	r2,257
  8044bc:	10841104 	addi	r2,r2,4164
  8044c0:	10c00035 	stwio	r3,0(r2)
	    	}
	    }

	    // Set outputs
	    if((data.AP) || (apTime < 50)){
  8044c4:	e0bfd083 	ldbu	r2,-190(fp)
  8044c8:	10803fcc 	andi	r2,r2,255
  8044cc:	1080201c 	xori	r2,r2,128
  8044d0:	10bfe004 	addi	r2,r2,-128
  8044d4:	1000071e 	bne	r2,zero,8044f4 <main+0x264>
  8044d8:	e0bfbe17 	ldw	r2,-264(fp)
  8044dc:	1000151e 	bne	r2,zero,804534 <main+0x2a4>
  8044e0:	e0bfbe17 	ldw	r2,-264(fp)
  8044e4:	1000031e 	bne	r2,zero,8044f4 <main+0x264>
  8044e8:	e0bfbd17 	ldw	r2,-268(fp)
  8044ec:	10800ca8 	cmpgeui	r2,r2,50
  8044f0:	1000101e 	bne	r2,zero,804534 <main+0x2a4>
		    IOWR_ALTERA_AVALON_PIO_DATA(LEDS_GREEN_BASE, 0x01);
  8044f4:	00c00044 	movi	r3,1
  8044f8:	00804074 	movhi	r2,257
  8044fc:	10841c04 	addi	r2,r2,4208
  804500:	10c00035 	stwio	r3,0(r2)
		    apTime++;
  804504:	e13fbd17 	ldw	r4,-268(fp)
  804508:	e17fbe17 	ldw	r5,-264(fp)
  80450c:	01800044 	movi	r6,1
  804510:	000f883a 	mov	r7,zero
  804514:	2185883a 	add	r2,r4,r6
  804518:	1111803a 	cmpltu	r8,r2,r4
  80451c:	29c7883a 	add	r3,r5,r7
  804520:	40c9883a 	add	r4,r8,r3
  804524:	2007883a 	mov	r3,r4
  804528:	e0bfbd15 	stw	r2,-268(fp)
  80452c:	e0ffbe15 	stw	r3,-264(fp)
  804530:	00002806 	br	8045d4 <main+0x344>
	    } else if ((data.VP) || (vpTime < 50)){
  804534:	e0bfd0c3 	ldbu	r2,-189(fp)
  804538:	10803fcc 	andi	r2,r2,255
  80453c:	1080201c 	xori	r2,r2,128
  804540:	10bfe004 	addi	r2,r2,-128
  804544:	1000071e 	bne	r2,zero,804564 <main+0x2d4>
  804548:	e0bfc017 	ldw	r2,-256(fp)
  80454c:	1000151e 	bne	r2,zero,8045a4 <main+0x314>
  804550:	e0bfc017 	ldw	r2,-256(fp)
  804554:	1000031e 	bne	r2,zero,804564 <main+0x2d4>
  804558:	e0bfbf17 	ldw	r2,-260(fp)
  80455c:	10800ca8 	cmpgeui	r2,r2,50
  804560:	1000101e 	bne	r2,zero,8045a4 <main+0x314>
		    IOWR_ALTERA_AVALON_PIO_DATA(LEDS_GREEN_BASE, 0x02);
  804564:	00c00084 	movi	r3,2
  804568:	00804074 	movhi	r2,257
  80456c:	10841c04 	addi	r2,r2,4208
  804570:	10c00035 	stwio	r3,0(r2)
		    vpTime++;
  804574:	e13fbf17 	ldw	r4,-260(fp)
  804578:	e17fc017 	ldw	r5,-256(fp)
  80457c:	01800044 	movi	r6,1
  804580:	000f883a 	mov	r7,zero
  804584:	2185883a 	add	r2,r4,r6
  804588:	1111803a 	cmpltu	r8,r2,r4
  80458c:	29c7883a 	add	r3,r5,r7
  804590:	40c9883a 	add	r4,r8,r3
  804594:	2007883a 	mov	r3,r4
  804598:	e0bfbf15 	stw	r2,-260(fp)
  80459c:	e0ffc015 	stw	r3,-256(fp)
  8045a0:	00000c06 	br	8045d4 <main+0x344>
	    } else {
		    IOWR_ALTERA_AVALON_PIO_DATA(LEDS_GREEN_BASE, 0x00);
  8045a4:	0007883a 	mov	r3,zero
  8045a8:	00804074 	movhi	r2,257
  8045ac:	10841c04 	addi	r2,r2,4208
  8045b0:	10c00035 	stwio	r3,0(r2)
		    apTime = -1;
  8045b4:	00bfffc4 	movi	r2,-1
  8045b8:	e0bfbd15 	stw	r2,-268(fp)
  8045bc:	00bfffc4 	movi	r2,-1
  8045c0:	e0bfbe15 	stw	r2,-264(fp)
		    vpTime = -1;
  8045c4:	00bfffc4 	movi	r2,-1
  8045c8:	e0bfbf15 	stw	r2,-260(fp)
  8045cc:	00bfffc4 	movi	r2,-1
  8045d0:	e0bfc015 	stw	r2,-256(fp)
	    }
	    // Set outputs
	    if((data.AS) || (asTime < 50)){
  8045d4:	e0bfd003 	ldbu	r2,-192(fp)
  8045d8:	10803fcc 	andi	r2,r2,255
  8045dc:	1080201c 	xori	r2,r2,128
  8045e0:	10bfe004 	addi	r2,r2,-128
  8045e4:	1000071e 	bne	r2,zero,804604 <main+0x374>
  8045e8:	e0bfc217 	ldw	r2,-248(fp)
  8045ec:	1000151e 	bne	r2,zero,804644 <main+0x3b4>
  8045f0:	e0bfc217 	ldw	r2,-248(fp)
  8045f4:	1000031e 	bne	r2,zero,804604 <main+0x374>
  8045f8:	e0bfc117 	ldw	r2,-252(fp)
  8045fc:	10800ca8 	cmpgeui	r2,r2,50
  804600:	1000101e 	bne	r2,zero,804644 <main+0x3b4>
		    IOWR_ALTERA_AVALON_PIO_DATA(LEDS_RED_BASE, 0x01);
  804604:	00c00044 	movi	r3,1
  804608:	00804074 	movhi	r2,257
  80460c:	10842004 	addi	r2,r2,4224
  804610:	10c00035 	stwio	r3,0(r2)
		    asTime++;
  804614:	e13fc117 	ldw	r4,-252(fp)
  804618:	e17fc217 	ldw	r5,-248(fp)
  80461c:	01800044 	movi	r6,1
  804620:	000f883a 	mov	r7,zero
  804624:	2185883a 	add	r2,r4,r6
  804628:	1111803a 	cmpltu	r8,r2,r4
  80462c:	29c7883a 	add	r3,r5,r7
  804630:	40c9883a 	add	r4,r8,r3
  804634:	2007883a 	mov	r3,r4
  804638:	e0bfc115 	stw	r2,-252(fp)
  80463c:	e0ffc215 	stw	r3,-248(fp)
  804640:	00002806 	br	8046e4 <main+0x454>
	    } else if ((data.VS) || (vsTime < 50)){
  804644:	e0bfd043 	ldbu	r2,-191(fp)
  804648:	10803fcc 	andi	r2,r2,255
  80464c:	1080201c 	xori	r2,r2,128
  804650:	10bfe004 	addi	r2,r2,-128
  804654:	1000071e 	bne	r2,zero,804674 <main+0x3e4>
  804658:	e0bfc417 	ldw	r2,-240(fp)
  80465c:	1000151e 	bne	r2,zero,8046b4 <main+0x424>
  804660:	e0bfc417 	ldw	r2,-240(fp)
  804664:	1000031e 	bne	r2,zero,804674 <main+0x3e4>
  804668:	e0bfc317 	ldw	r2,-244(fp)
  80466c:	10800ca8 	cmpgeui	r2,r2,50
  804670:	1000101e 	bne	r2,zero,8046b4 <main+0x424>
		    IOWR_ALTERA_AVALON_PIO_DATA(LEDS_RED_BASE, 0x02);
  804674:	00c00084 	movi	r3,2
  804678:	00804074 	movhi	r2,257
  80467c:	10842004 	addi	r2,r2,4224
  804680:	10c00035 	stwio	r3,0(r2)
		    vsTime++;
  804684:	e13fc317 	ldw	r4,-244(fp)
  804688:	e17fc417 	ldw	r5,-240(fp)
  80468c:	01800044 	movi	r6,1
  804690:	000f883a 	mov	r7,zero
  804694:	2185883a 	add	r2,r4,r6
  804698:	1111803a 	cmpltu	r8,r2,r4
  80469c:	29c7883a 	add	r3,r5,r7
  8046a0:	40c9883a 	add	r4,r8,r3
  8046a4:	2007883a 	mov	r3,r4
  8046a8:	e0bfc315 	stw	r2,-244(fp)
  8046ac:	e0ffc415 	stw	r3,-240(fp)
  8046b0:	00000c06 	br	8046e4 <main+0x454>
	    } else {
		    IOWR_ALTERA_AVALON_PIO_DATA(LEDS_RED_BASE, 0x00);
  8046b4:	0007883a 	mov	r3,zero
  8046b8:	00804074 	movhi	r2,257
  8046bc:	10842004 	addi	r2,r2,4224
  8046c0:	10c00035 	stwio	r3,0(r2)
		    asTime = -1;
  8046c4:	00bfffc4 	movi	r2,-1
  8046c8:	e0bfc115 	stw	r2,-252(fp)
  8046cc:	00bfffc4 	movi	r2,-1
  8046d0:	e0bfc215 	stw	r2,-248(fp)
		    vsTime = -1;
  8046d4:	00bfffc4 	movi	r2,-1
  8046d8:	e0bfc315 	stw	r2,-244(fp)
  8046dc:	00bfffc4 	movi	r2,-1
  8046e0:	e0bfc415 	stw	r2,-240(fp)
	    }
	}
  8046e4:	003f1c06 	br	804358 <__alt_mem_onchip_mem+0xff7fc358>

008046e8 <updateButtonInputs>:
	return 0;
}

void updateButtonInputs(uint8_t * AS, uint8_t * VS)
{
  8046e8:	defffc04 	addi	sp,sp,-16
  8046ec:	df000315 	stw	fp,12(sp)
  8046f0:	df000304 	addi	fp,sp,12
  8046f4:	e13ffe15 	stw	r4,-8(fp)
  8046f8:	e17fff15 	stw	r5,-4(fp)
	uint8_t key = IORD_ALTERA_AVALON_PIO_EDGE_CAP(KEYS_BASE);
  8046fc:	00804074 	movhi	r2,257
  804700:	10842b04 	addi	r2,r2,4268
  804704:	10800037 	ldwio	r2,0(r2)
  804708:	e0bffd05 	stb	r2,-12(fp)
	IOWR_ALTERA_AVALON_PIO_EDGE_CAP(KEYS_BASE, 0);
  80470c:	0007883a 	mov	r3,zero
  804710:	00804074 	movhi	r2,257
  804714:	10842b04 	addi	r2,r2,4268
  804718:	10c00035 	stwio	r3,0(r2)

	// Set inputs
	(*AS) = 0;
  80471c:	e0bffe17 	ldw	r2,-8(fp)
  804720:	10000005 	stb	zero,0(r2)
	(*VS) = 0;
  804724:	e0bfff17 	ldw	r2,-4(fp)
  804728:	10000005 	stb	zero,0(r2)
	if(key == 1) {
  80472c:	e0bffd03 	ldbu	r2,-12(fp)
  804730:	10800058 	cmpnei	r2,r2,1
  804734:	1000041e 	bne	r2,zero,804748 <updateButtonInputs+0x60>
		*AS = 1;
  804738:	e0bffe17 	ldw	r2,-8(fp)
  80473c:	00c00044 	movi	r3,1
  804740:	10c00005 	stb	r3,0(r2)
	} else if (key == 2){
		*VS = 1;
	}
}
  804744:	00000606 	br	804760 <updateButtonInputs+0x78>
	// Set inputs
	(*AS) = 0;
	(*VS) = 0;
	if(key == 1) {
		*AS = 1;
	} else if (key == 2){
  804748:	e0bffd03 	ldbu	r2,-12(fp)
  80474c:	10800098 	cmpnei	r2,r2,2
  804750:	1000031e 	bne	r2,zero,804760 <updateButtonInputs+0x78>
		*VS = 1;
  804754:	e0bfff17 	ldw	r2,-4(fp)
  804758:	00c00044 	movi	r3,1
  80475c:	10c00005 	stb	r3,0(r2)
	}
}
  804760:	0001883a 	nop
  804764:	e037883a 	mov	sp,fp
  804768:	df000017 	ldw	fp,0(sp)
  80476c:	dec00104 	addi	sp,sp,4
  804770:	f800283a 	ret

00804774 <updateUartInputs>:

void updateUartInputs(uint8_t * AS, uint8_t * VS)
{
  804774:	defffc04 	addi	sp,sp,-16
  804778:	df000315 	stw	fp,12(sp)
  80477c:	df000304 	addi	fp,sp,12
  804780:	e13ffe15 	stw	r4,-8(fp)
  804784:	e17fff15 	stw	r5,-4(fp)
	*VS = 0;
  804788:	e0bfff17 	ldw	r2,-4(fp)
  80478c:	10000005 	stb	zero,0(r2)
	*AS = 0;
  804790:	e0bffe17 	ldw	r2,-8(fp)
  804794:	10000005 	stb	zero,0(r2)
	if (IORD_ALTERA_AVALON_UART_STATUS(UART_BASE)){
  804798:	00804074 	movhi	r2,257
  80479c:	10841204 	addi	r2,r2,4168
  8047a0:	10800037 	ldwio	r2,0(r2)
  8047a4:	10001126 	beq	r2,zero,8047ec <updateUartInputs+0x78>
		uint8_t input = IORD_ALTERA_AVALON_UART_RXDATA(UART_BASE);
  8047a8:	00804074 	movhi	r2,257
  8047ac:	10841004 	addi	r2,r2,4160
  8047b0:	10800037 	ldwio	r2,0(r2)
  8047b4:	e0bffd05 	stb	r2,-12(fp)
		if (input == 'V'){
  8047b8:	e0bffd03 	ldbu	r2,-12(fp)
  8047bc:	10801598 	cmpnei	r2,r2,86
  8047c0:	1000041e 	bne	r2,zero,8047d4 <updateUartInputs+0x60>
			*VS = 1;
  8047c4:	e0bfff17 	ldw	r2,-4(fp)
  8047c8:	00c00044 	movi	r3,1
  8047cc:	10c00005 	stb	r3,0(r2)
		} else if (input == 'A'){
			*AS = 1;
		}
	}
}
  8047d0:	00000606 	br	8047ec <updateUartInputs+0x78>
	*AS = 0;
	if (IORD_ALTERA_AVALON_UART_STATUS(UART_BASE)){
		uint8_t input = IORD_ALTERA_AVALON_UART_RXDATA(UART_BASE);
		if (input == 'V'){
			*VS = 1;
		} else if (input == 'A'){
  8047d4:	e0bffd03 	ldbu	r2,-12(fp)
  8047d8:	10801058 	cmpnei	r2,r2,65
  8047dc:	1000031e 	bne	r2,zero,8047ec <updateUartInputs+0x78>
			*AS = 1;
  8047e0:	e0bffe17 	ldw	r2,-8(fp)
  8047e4:	00c00044 	movi	r3,1
  8047e8:	10c00005 	stb	r3,0(r2)
		}
	}
}
  8047ec:	0001883a 	nop
  8047f0:	e037883a 	mov	sp,fp
  8047f4:	df000017 	ldw	fp,0(sp)
  8047f8:	dec00104 	addi	sp,sp,4
  8047fc:	f800283a 	ret

00804800 <updateState>:
#include <system.h>
#include <stdio.h>
#include <altera_avalon_pio_regs.h>

void updateState(uint8_t *state)
{
  804800:	defffc04 	addi	sp,sp,-16
  804804:	dfc00315 	stw	ra,12(sp)
  804808:	df000215 	stw	fp,8(sp)
  80480c:	df000204 	addi	fp,sp,8
  804810:	e13fff15 	stw	r4,-4(fp)
    if ((*state) != (IORD_ALTERA_AVALON_PIO_DATA(SWITCHES_BASE) & 0x3)){
  804814:	e0bfff17 	ldw	r2,-4(fp)
  804818:	10800003 	ldbu	r2,0(r2)
  80481c:	10c03fcc 	andi	r3,r2,255
  804820:	00804074 	movhi	r2,257
  804824:	10842404 	addi	r2,r2,4240
  804828:	10800037 	ldwio	r2,0(r2)
  80482c:	108000cc 	andi	r2,r2,3
  804830:	18803326 	beq	r3,r2,804900 <updateState+0x100>
    	(*state) = (IORD_ALTERA_AVALON_PIO_DATA(SWITCHES_BASE) & 0x3);
  804834:	00804074 	movhi	r2,257
  804838:	10842404 	addi	r2,r2,4240
  80483c:	10800037 	ldwio	r2,0(r2)
  804840:	108000cc 	andi	r2,r2,3
  804844:	1007883a 	mov	r3,r2
  804848:	e0bfff17 	ldw	r2,-4(fp)
  80484c:	10c00005 	stb	r3,0(r2)
    	FILE* lcd_fp = fopen(LCD_NAME, "w");
  804850:	01402074 	movhi	r5,129
  804854:	29773004 	addi	r5,r5,-9024
  804858:	01002074 	movhi	r4,129
  80485c:	21373104 	addi	r4,r4,-9020
  804860:	0806d640 	call	806d64 <fopen>
  804864:	e0bffe15 	stw	r2,-8(fp)
    	if (((*state) & 0x1) == CHART){
  804868:	e0bfff17 	ldw	r2,-4(fp)
  80486c:	10800003 	ldbu	r2,0(r2)
  804870:	10803fcc 	andi	r2,r2,255
  804874:	1080004c 	andi	r2,r2,1
  804878:	1000071e 	bne	r2,zero,804898 <updateState+0x98>
    		fprintf(lcd_fp, "Mode : SCChart\n");
  80487c:	e1fffe17 	ldw	r7,-8(fp)
  804880:	018003c4 	movi	r6,15
  804884:	01400044 	movi	r5,1
  804888:	01002074 	movhi	r4,129
  80488c:	21373404 	addi	r4,r4,-9008
  804890:	08078e00 	call	8078e0 <fwrite>
  804894:	00000606 	br	8048b0 <updateState+0xb0>
    	} else {
    		fprintf(lcd_fp, "Mode : Code\n");
  804898:	e1fffe17 	ldw	r7,-8(fp)
  80489c:	01800304 	movi	r6,12
  8048a0:	01400044 	movi	r5,1
  8048a4:	01002074 	movhi	r4,129
  8048a8:	21373804 	addi	r4,r4,-8992
  8048ac:	08078e00 	call	8078e0 <fwrite>
    	}
    	if (((*state) & 0x2) == BUTTONS) {
  8048b0:	e0bfff17 	ldw	r2,-4(fp)
  8048b4:	10800003 	ldbu	r2,0(r2)
  8048b8:	10803fcc 	andi	r2,r2,255
  8048bc:	1080008c 	andi	r2,r2,2
  8048c0:	1000071e 	bne	r2,zero,8048e0 <updateState+0xe0>
    		fprintf(lcd_fp, "Input: Buttons\n");
  8048c4:	e1fffe17 	ldw	r7,-8(fp)
  8048c8:	018003c4 	movi	r6,15
  8048cc:	01400044 	movi	r5,1
  8048d0:	01002074 	movhi	r4,129
  8048d4:	21373c04 	addi	r4,r4,-8976
  8048d8:	08078e00 	call	8078e0 <fwrite>
  8048dc:	00000606 	br	8048f8 <updateState+0xf8>
    	} else {
    		fprintf(lcd_fp, "Input: UART\n");
  8048e0:	e1fffe17 	ldw	r7,-8(fp)
  8048e4:	01800304 	movi	r6,12
  8048e8:	01400044 	movi	r5,1
  8048ec:	01002074 	movhi	r4,129
  8048f0:	21374004 	addi	r4,r4,-8960
  8048f4:	08078e00 	call	8078e0 <fwrite>
    	}
    	fclose(lcd_fp);
  8048f8:	e13ffe17 	ldw	r4,-8(fp)
  8048fc:	08066140 	call	806614 <fclose>
    }
}
  804900:	0001883a 	nop
  804904:	e037883a 	mov	sp,fp
  804908:	dfc00117 	ldw	ra,4(sp)
  80490c:	df000017 	ldw	fp,0(sp)
  804910:	dec00204 	addi	sp,sp,8
  804914:	f800283a 	ret

00804918 <__floatundidf>:
  804918:	defffc04 	addi	sp,sp,-16
  80491c:	dc800215 	stw	r18,8(sp)
  804920:	2025883a 	mov	r18,r4
  804924:	2809883a 	mov	r4,r5
  804928:	dfc00315 	stw	ra,12(sp)
  80492c:	dc400115 	stw	r17,4(sp)
  804930:	dc000015 	stw	r16,0(sp)
  804934:	08064180 	call	806418 <__floatunsidf>
  804938:	000d883a 	mov	r6,zero
  80493c:	01d07c34 	movhi	r7,16880
  804940:	180b883a 	mov	r5,r3
  804944:	1009883a 	mov	r4,r2
  804948:	08054040 	call	805404 <__muldf3>
  80494c:	9009883a 	mov	r4,r18
  804950:	1023883a 	mov	r17,r2
  804954:	1821883a 	mov	r16,r3
  804958:	08064180 	call	806418 <__floatunsidf>
  80495c:	880d883a 	mov	r6,r17
  804960:	800f883a 	mov	r7,r16
  804964:	1009883a 	mov	r4,r2
  804968:	180b883a 	mov	r5,r3
  80496c:	08049880 	call	804988 <__adddf3>
  804970:	dfc00317 	ldw	ra,12(sp)
  804974:	dc800217 	ldw	r18,8(sp)
  804978:	dc400117 	ldw	r17,4(sp)
  80497c:	dc000017 	ldw	r16,0(sp)
  804980:	dec00404 	addi	sp,sp,16
  804984:	f800283a 	ret

00804988 <__adddf3>:
  804988:	02c00434 	movhi	r11,16
  80498c:	5affffc4 	addi	r11,r11,-1
  804990:	2806d7fa 	srli	r3,r5,31
  804994:	2ad4703a 	and	r10,r5,r11
  804998:	3ad2703a 	and	r9,r7,r11
  80499c:	3804d53a 	srli	r2,r7,20
  8049a0:	3018d77a 	srli	r12,r6,29
  8049a4:	280ad53a 	srli	r5,r5,20
  8049a8:	501490fa 	slli	r10,r10,3
  8049ac:	2010d77a 	srli	r8,r4,29
  8049b0:	481290fa 	slli	r9,r9,3
  8049b4:	380ed7fa 	srli	r7,r7,31
  8049b8:	defffb04 	addi	sp,sp,-20
  8049bc:	dc800215 	stw	r18,8(sp)
  8049c0:	dc400115 	stw	r17,4(sp)
  8049c4:	dc000015 	stw	r16,0(sp)
  8049c8:	dfc00415 	stw	ra,16(sp)
  8049cc:	dcc00315 	stw	r19,12(sp)
  8049d0:	1c803fcc 	andi	r18,r3,255
  8049d4:	2c01ffcc 	andi	r16,r5,2047
  8049d8:	5210b03a 	or	r8,r10,r8
  8049dc:	202290fa 	slli	r17,r4,3
  8049e0:	1081ffcc 	andi	r2,r2,2047
  8049e4:	4b12b03a 	or	r9,r9,r12
  8049e8:	300c90fa 	slli	r6,r6,3
  8049ec:	91c07526 	beq	r18,r7,804bc4 <__adddf3+0x23c>
  8049f0:	8087c83a 	sub	r3,r16,r2
  8049f4:	00c0ab0e 	bge	zero,r3,804ca4 <__adddf3+0x31c>
  8049f8:	10002a1e 	bne	r2,zero,804aa4 <__adddf3+0x11c>
  8049fc:	4984b03a 	or	r2,r9,r6
  804a00:	1000961e 	bne	r2,zero,804c5c <__adddf3+0x2d4>
  804a04:	888001cc 	andi	r2,r17,7
  804a08:	10000726 	beq	r2,zero,804a28 <__adddf3+0xa0>
  804a0c:	888003cc 	andi	r2,r17,15
  804a10:	00c00104 	movi	r3,4
  804a14:	10c00426 	beq	r2,r3,804a28 <__adddf3+0xa0>
  804a18:	88c7883a 	add	r3,r17,r3
  804a1c:	1c63803a 	cmpltu	r17,r3,r17
  804a20:	4451883a 	add	r8,r8,r17
  804a24:	1823883a 	mov	r17,r3
  804a28:	4080202c 	andhi	r2,r8,128
  804a2c:	10005926 	beq	r2,zero,804b94 <__adddf3+0x20c>
  804a30:	84000044 	addi	r16,r16,1
  804a34:	0081ffc4 	movi	r2,2047
  804a38:	8080ba26 	beq	r16,r2,804d24 <__adddf3+0x39c>
  804a3c:	00bfe034 	movhi	r2,65408
  804a40:	10bfffc4 	addi	r2,r2,-1
  804a44:	4090703a 	and	r8,r8,r2
  804a48:	4004977a 	slli	r2,r8,29
  804a4c:	4010927a 	slli	r8,r8,9
  804a50:	8822d0fa 	srli	r17,r17,3
  804a54:	8401ffcc 	andi	r16,r16,2047
  804a58:	4010d33a 	srli	r8,r8,12
  804a5c:	9007883a 	mov	r3,r18
  804a60:	1444b03a 	or	r2,r2,r17
  804a64:	8401ffcc 	andi	r16,r16,2047
  804a68:	8020953a 	slli	r16,r16,20
  804a6c:	18c03fcc 	andi	r3,r3,255
  804a70:	01000434 	movhi	r4,16
  804a74:	213fffc4 	addi	r4,r4,-1
  804a78:	180697fa 	slli	r3,r3,31
  804a7c:	4110703a 	and	r8,r8,r4
  804a80:	4410b03a 	or	r8,r8,r16
  804a84:	40c6b03a 	or	r3,r8,r3
  804a88:	dfc00417 	ldw	ra,16(sp)
  804a8c:	dcc00317 	ldw	r19,12(sp)
  804a90:	dc800217 	ldw	r18,8(sp)
  804a94:	dc400117 	ldw	r17,4(sp)
  804a98:	dc000017 	ldw	r16,0(sp)
  804a9c:	dec00504 	addi	sp,sp,20
  804aa0:	f800283a 	ret
  804aa4:	0081ffc4 	movi	r2,2047
  804aa8:	80bfd626 	beq	r16,r2,804a04 <__alt_mem_onchip_mem+0xff7fca04>
  804aac:	4a402034 	orhi	r9,r9,128
  804ab0:	00800e04 	movi	r2,56
  804ab4:	10c09f16 	blt	r2,r3,804d34 <__adddf3+0x3ac>
  804ab8:	008007c4 	movi	r2,31
  804abc:	10c0c216 	blt	r2,r3,804dc8 <__adddf3+0x440>
  804ac0:	00800804 	movi	r2,32
  804ac4:	10c5c83a 	sub	r2,r2,r3
  804ac8:	488a983a 	sll	r5,r9,r2
  804acc:	30c8d83a 	srl	r4,r6,r3
  804ad0:	3084983a 	sll	r2,r6,r2
  804ad4:	48c6d83a 	srl	r3,r9,r3
  804ad8:	290cb03a 	or	r6,r5,r4
  804adc:	1004c03a 	cmpne	r2,r2,zero
  804ae0:	308cb03a 	or	r6,r6,r2
  804ae4:	898dc83a 	sub	r6,r17,r6
  804ae8:	89a3803a 	cmpltu	r17,r17,r6
  804aec:	40d1c83a 	sub	r8,r8,r3
  804af0:	4451c83a 	sub	r8,r8,r17
  804af4:	3023883a 	mov	r17,r6
  804af8:	4080202c 	andhi	r2,r8,128
  804afc:	10002326 	beq	r2,zero,804b8c <__adddf3+0x204>
  804b00:	04c02034 	movhi	r19,128
  804b04:	9cffffc4 	addi	r19,r19,-1
  804b08:	44e6703a 	and	r19,r8,r19
  804b0c:	98007626 	beq	r19,zero,804ce8 <__adddf3+0x360>
  804b10:	9809883a 	mov	r4,r19
  804b14:	08064c00 	call	8064c0 <__clzsi2>
  804b18:	10fffe04 	addi	r3,r2,-8
  804b1c:	010007c4 	movi	r4,31
  804b20:	20c07716 	blt	r4,r3,804d00 <__adddf3+0x378>
  804b24:	00800804 	movi	r2,32
  804b28:	10c5c83a 	sub	r2,r2,r3
  804b2c:	8884d83a 	srl	r2,r17,r2
  804b30:	98d0983a 	sll	r8,r19,r3
  804b34:	88e2983a 	sll	r17,r17,r3
  804b38:	1204b03a 	or	r2,r2,r8
  804b3c:	1c007416 	blt	r3,r16,804d10 <__adddf3+0x388>
  804b40:	1c21c83a 	sub	r16,r3,r16
  804b44:	82000044 	addi	r8,r16,1
  804b48:	00c007c4 	movi	r3,31
  804b4c:	1a009116 	blt	r3,r8,804d94 <__adddf3+0x40c>
  804b50:	00c00804 	movi	r3,32
  804b54:	1a07c83a 	sub	r3,r3,r8
  804b58:	8a08d83a 	srl	r4,r17,r8
  804b5c:	88e2983a 	sll	r17,r17,r3
  804b60:	10c6983a 	sll	r3,r2,r3
  804b64:	1210d83a 	srl	r8,r2,r8
  804b68:	8804c03a 	cmpne	r2,r17,zero
  804b6c:	1906b03a 	or	r3,r3,r4
  804b70:	18a2b03a 	or	r17,r3,r2
  804b74:	0021883a 	mov	r16,zero
  804b78:	003fa206 	br	804a04 <__alt_mem_onchip_mem+0xff7fca04>
  804b7c:	1890b03a 	or	r8,r3,r2
  804b80:	40017d26 	beq	r8,zero,805178 <__adddf3+0x7f0>
  804b84:	1011883a 	mov	r8,r2
  804b88:	1823883a 	mov	r17,r3
  804b8c:	888001cc 	andi	r2,r17,7
  804b90:	103f9e1e 	bne	r2,zero,804a0c <__alt_mem_onchip_mem+0xff7fca0c>
  804b94:	4004977a 	slli	r2,r8,29
  804b98:	8822d0fa 	srli	r17,r17,3
  804b9c:	4010d0fa 	srli	r8,r8,3
  804ba0:	9007883a 	mov	r3,r18
  804ba4:	1444b03a 	or	r2,r2,r17
  804ba8:	0101ffc4 	movi	r4,2047
  804bac:	81002426 	beq	r16,r4,804c40 <__adddf3+0x2b8>
  804bb0:	8120703a 	and	r16,r16,r4
  804bb4:	01000434 	movhi	r4,16
  804bb8:	213fffc4 	addi	r4,r4,-1
  804bbc:	4110703a 	and	r8,r8,r4
  804bc0:	003fa806 	br	804a64 <__alt_mem_onchip_mem+0xff7fca64>
  804bc4:	8089c83a 	sub	r4,r16,r2
  804bc8:	01005e0e 	bge	zero,r4,804d44 <__adddf3+0x3bc>
  804bcc:	10002b26 	beq	r2,zero,804c7c <__adddf3+0x2f4>
  804bd0:	0081ffc4 	movi	r2,2047
  804bd4:	80bf8b26 	beq	r16,r2,804a04 <__alt_mem_onchip_mem+0xff7fca04>
  804bd8:	4a402034 	orhi	r9,r9,128
  804bdc:	00800e04 	movi	r2,56
  804be0:	1100a40e 	bge	r2,r4,804e74 <__adddf3+0x4ec>
  804be4:	498cb03a 	or	r6,r9,r6
  804be8:	300ac03a 	cmpne	r5,r6,zero
  804bec:	0013883a 	mov	r9,zero
  804bf0:	2c4b883a 	add	r5,r5,r17
  804bf4:	2c63803a 	cmpltu	r17,r5,r17
  804bf8:	4a11883a 	add	r8,r9,r8
  804bfc:	8a11883a 	add	r8,r17,r8
  804c00:	2823883a 	mov	r17,r5
  804c04:	4080202c 	andhi	r2,r8,128
  804c08:	103fe026 	beq	r2,zero,804b8c <__alt_mem_onchip_mem+0xff7fcb8c>
  804c0c:	84000044 	addi	r16,r16,1
  804c10:	0081ffc4 	movi	r2,2047
  804c14:	8080d226 	beq	r16,r2,804f60 <__adddf3+0x5d8>
  804c18:	00bfe034 	movhi	r2,65408
  804c1c:	10bfffc4 	addi	r2,r2,-1
  804c20:	4090703a 	and	r8,r8,r2
  804c24:	880ad07a 	srli	r5,r17,1
  804c28:	400897fa 	slli	r4,r8,31
  804c2c:	88c0004c 	andi	r3,r17,1
  804c30:	28e2b03a 	or	r17,r5,r3
  804c34:	4010d07a 	srli	r8,r8,1
  804c38:	2462b03a 	or	r17,r4,r17
  804c3c:	003f7106 	br	804a04 <__alt_mem_onchip_mem+0xff7fca04>
  804c40:	4088b03a 	or	r4,r8,r2
  804c44:	20014526 	beq	r4,zero,80515c <__adddf3+0x7d4>
  804c48:	01000434 	movhi	r4,16
  804c4c:	42000234 	orhi	r8,r8,8
  804c50:	213fffc4 	addi	r4,r4,-1
  804c54:	4110703a 	and	r8,r8,r4
  804c58:	003f8206 	br	804a64 <__alt_mem_onchip_mem+0xff7fca64>
  804c5c:	18ffffc4 	addi	r3,r3,-1
  804c60:	1800491e 	bne	r3,zero,804d88 <__adddf3+0x400>
  804c64:	898bc83a 	sub	r5,r17,r6
  804c68:	8963803a 	cmpltu	r17,r17,r5
  804c6c:	4251c83a 	sub	r8,r8,r9
  804c70:	4451c83a 	sub	r8,r8,r17
  804c74:	2823883a 	mov	r17,r5
  804c78:	003f9f06 	br	804af8 <__alt_mem_onchip_mem+0xff7fcaf8>
  804c7c:	4984b03a 	or	r2,r9,r6
  804c80:	103f6026 	beq	r2,zero,804a04 <__alt_mem_onchip_mem+0xff7fca04>
  804c84:	213fffc4 	addi	r4,r4,-1
  804c88:	2000931e 	bne	r4,zero,804ed8 <__adddf3+0x550>
  804c8c:	898d883a 	add	r6,r17,r6
  804c90:	3463803a 	cmpltu	r17,r6,r17
  804c94:	4251883a 	add	r8,r8,r9
  804c98:	8a11883a 	add	r8,r17,r8
  804c9c:	3023883a 	mov	r17,r6
  804ca0:	003fd806 	br	804c04 <__alt_mem_onchip_mem+0xff7fcc04>
  804ca4:	1800541e 	bne	r3,zero,804df8 <__adddf3+0x470>
  804ca8:	80800044 	addi	r2,r16,1
  804cac:	1081ffcc 	andi	r2,r2,2047
  804cb0:	00c00044 	movi	r3,1
  804cb4:	1880a00e 	bge	r3,r2,804f38 <__adddf3+0x5b0>
  804cb8:	8989c83a 	sub	r4,r17,r6
  804cbc:	8905803a 	cmpltu	r2,r17,r4
  804cc0:	4267c83a 	sub	r19,r8,r9
  804cc4:	98a7c83a 	sub	r19,r19,r2
  804cc8:	9880202c 	andhi	r2,r19,128
  804ccc:	10006326 	beq	r2,zero,804e5c <__adddf3+0x4d4>
  804cd0:	3463c83a 	sub	r17,r6,r17
  804cd4:	4a07c83a 	sub	r3,r9,r8
  804cd8:	344d803a 	cmpltu	r6,r6,r17
  804cdc:	19a7c83a 	sub	r19,r3,r6
  804ce0:	3825883a 	mov	r18,r7
  804ce4:	983f8a1e 	bne	r19,zero,804b10 <__alt_mem_onchip_mem+0xff7fcb10>
  804ce8:	8809883a 	mov	r4,r17
  804cec:	08064c00 	call	8064c0 <__clzsi2>
  804cf0:	10800804 	addi	r2,r2,32
  804cf4:	10fffe04 	addi	r3,r2,-8
  804cf8:	010007c4 	movi	r4,31
  804cfc:	20ff890e 	bge	r4,r3,804b24 <__alt_mem_onchip_mem+0xff7fcb24>
  804d00:	10bff604 	addi	r2,r2,-40
  804d04:	8884983a 	sll	r2,r17,r2
  804d08:	0023883a 	mov	r17,zero
  804d0c:	1c3f8c0e 	bge	r3,r16,804b40 <__alt_mem_onchip_mem+0xff7fcb40>
  804d10:	023fe034 	movhi	r8,65408
  804d14:	423fffc4 	addi	r8,r8,-1
  804d18:	80e1c83a 	sub	r16,r16,r3
  804d1c:	1210703a 	and	r8,r2,r8
  804d20:	003f3806 	br	804a04 <__alt_mem_onchip_mem+0xff7fca04>
  804d24:	9007883a 	mov	r3,r18
  804d28:	0011883a 	mov	r8,zero
  804d2c:	0005883a 	mov	r2,zero
  804d30:	003f4c06 	br	804a64 <__alt_mem_onchip_mem+0xff7fca64>
  804d34:	498cb03a 	or	r6,r9,r6
  804d38:	300cc03a 	cmpne	r6,r6,zero
  804d3c:	0007883a 	mov	r3,zero
  804d40:	003f6806 	br	804ae4 <__alt_mem_onchip_mem+0xff7fcae4>
  804d44:	20009c1e 	bne	r4,zero,804fb8 <__adddf3+0x630>
  804d48:	80800044 	addi	r2,r16,1
  804d4c:	1141ffcc 	andi	r5,r2,2047
  804d50:	01000044 	movi	r4,1
  804d54:	2140670e 	bge	r4,r5,804ef4 <__adddf3+0x56c>
  804d58:	0101ffc4 	movi	r4,2047
  804d5c:	11007f26 	beq	r2,r4,804f5c <__adddf3+0x5d4>
  804d60:	898d883a 	add	r6,r17,r6
  804d64:	4247883a 	add	r3,r8,r9
  804d68:	3451803a 	cmpltu	r8,r6,r17
  804d6c:	40d1883a 	add	r8,r8,r3
  804d70:	402297fa 	slli	r17,r8,31
  804d74:	300cd07a 	srli	r6,r6,1
  804d78:	4010d07a 	srli	r8,r8,1
  804d7c:	1021883a 	mov	r16,r2
  804d80:	89a2b03a 	or	r17,r17,r6
  804d84:	003f1f06 	br	804a04 <__alt_mem_onchip_mem+0xff7fca04>
  804d88:	0081ffc4 	movi	r2,2047
  804d8c:	80bf481e 	bne	r16,r2,804ab0 <__alt_mem_onchip_mem+0xff7fcab0>
  804d90:	003f1c06 	br	804a04 <__alt_mem_onchip_mem+0xff7fca04>
  804d94:	843ff844 	addi	r16,r16,-31
  804d98:	01000804 	movi	r4,32
  804d9c:	1406d83a 	srl	r3,r2,r16
  804da0:	41005026 	beq	r8,r4,804ee4 <__adddf3+0x55c>
  804da4:	01001004 	movi	r4,64
  804da8:	2211c83a 	sub	r8,r4,r8
  804dac:	1204983a 	sll	r2,r2,r8
  804db0:	88a2b03a 	or	r17,r17,r2
  804db4:	8822c03a 	cmpne	r17,r17,zero
  804db8:	1c62b03a 	or	r17,r3,r17
  804dbc:	0011883a 	mov	r8,zero
  804dc0:	0021883a 	mov	r16,zero
  804dc4:	003f7106 	br	804b8c <__alt_mem_onchip_mem+0xff7fcb8c>
  804dc8:	193ff804 	addi	r4,r3,-32
  804dcc:	00800804 	movi	r2,32
  804dd0:	4908d83a 	srl	r4,r9,r4
  804dd4:	18804526 	beq	r3,r2,804eec <__adddf3+0x564>
  804dd8:	00801004 	movi	r2,64
  804ddc:	10c5c83a 	sub	r2,r2,r3
  804de0:	4886983a 	sll	r3,r9,r2
  804de4:	198cb03a 	or	r6,r3,r6
  804de8:	300cc03a 	cmpne	r6,r6,zero
  804dec:	218cb03a 	or	r6,r4,r6
  804df0:	0007883a 	mov	r3,zero
  804df4:	003f3b06 	br	804ae4 <__alt_mem_onchip_mem+0xff7fcae4>
  804df8:	80002a26 	beq	r16,zero,804ea4 <__adddf3+0x51c>
  804dfc:	0101ffc4 	movi	r4,2047
  804e00:	11006826 	beq	r2,r4,804fa4 <__adddf3+0x61c>
  804e04:	00c7c83a 	sub	r3,zero,r3
  804e08:	42002034 	orhi	r8,r8,128
  804e0c:	01000e04 	movi	r4,56
  804e10:	20c07c16 	blt	r4,r3,805004 <__adddf3+0x67c>
  804e14:	010007c4 	movi	r4,31
  804e18:	20c0da16 	blt	r4,r3,805184 <__adddf3+0x7fc>
  804e1c:	01000804 	movi	r4,32
  804e20:	20c9c83a 	sub	r4,r4,r3
  804e24:	4114983a 	sll	r10,r8,r4
  804e28:	88cad83a 	srl	r5,r17,r3
  804e2c:	8908983a 	sll	r4,r17,r4
  804e30:	40c6d83a 	srl	r3,r8,r3
  804e34:	5162b03a 	or	r17,r10,r5
  804e38:	2008c03a 	cmpne	r4,r4,zero
  804e3c:	8922b03a 	or	r17,r17,r4
  804e40:	3463c83a 	sub	r17,r6,r17
  804e44:	48c7c83a 	sub	r3,r9,r3
  804e48:	344d803a 	cmpltu	r6,r6,r17
  804e4c:	1991c83a 	sub	r8,r3,r6
  804e50:	1021883a 	mov	r16,r2
  804e54:	3825883a 	mov	r18,r7
  804e58:	003f2706 	br	804af8 <__alt_mem_onchip_mem+0xff7fcaf8>
  804e5c:	24d0b03a 	or	r8,r4,r19
  804e60:	40001b1e 	bne	r8,zero,804ed0 <__adddf3+0x548>
  804e64:	0005883a 	mov	r2,zero
  804e68:	0007883a 	mov	r3,zero
  804e6c:	0021883a 	mov	r16,zero
  804e70:	003f4d06 	br	804ba8 <__alt_mem_onchip_mem+0xff7fcba8>
  804e74:	008007c4 	movi	r2,31
  804e78:	11003c16 	blt	r2,r4,804f6c <__adddf3+0x5e4>
  804e7c:	00800804 	movi	r2,32
  804e80:	1105c83a 	sub	r2,r2,r4
  804e84:	488e983a 	sll	r7,r9,r2
  804e88:	310ad83a 	srl	r5,r6,r4
  804e8c:	3084983a 	sll	r2,r6,r2
  804e90:	4912d83a 	srl	r9,r9,r4
  804e94:	394ab03a 	or	r5,r7,r5
  804e98:	1004c03a 	cmpne	r2,r2,zero
  804e9c:	288ab03a 	or	r5,r5,r2
  804ea0:	003f5306 	br	804bf0 <__alt_mem_onchip_mem+0xff7fcbf0>
  804ea4:	4448b03a 	or	r4,r8,r17
  804ea8:	20003e26 	beq	r4,zero,804fa4 <__adddf3+0x61c>
  804eac:	00c6303a 	nor	r3,zero,r3
  804eb0:	18003a1e 	bne	r3,zero,804f9c <__adddf3+0x614>
  804eb4:	3463c83a 	sub	r17,r6,r17
  804eb8:	4a07c83a 	sub	r3,r9,r8
  804ebc:	344d803a 	cmpltu	r6,r6,r17
  804ec0:	1991c83a 	sub	r8,r3,r6
  804ec4:	1021883a 	mov	r16,r2
  804ec8:	3825883a 	mov	r18,r7
  804ecc:	003f0a06 	br	804af8 <__alt_mem_onchip_mem+0xff7fcaf8>
  804ed0:	2023883a 	mov	r17,r4
  804ed4:	003f0d06 	br	804b0c <__alt_mem_onchip_mem+0xff7fcb0c>
  804ed8:	0081ffc4 	movi	r2,2047
  804edc:	80bf3f1e 	bne	r16,r2,804bdc <__alt_mem_onchip_mem+0xff7fcbdc>
  804ee0:	003ec806 	br	804a04 <__alt_mem_onchip_mem+0xff7fca04>
  804ee4:	0005883a 	mov	r2,zero
  804ee8:	003fb106 	br	804db0 <__alt_mem_onchip_mem+0xff7fcdb0>
  804eec:	0007883a 	mov	r3,zero
  804ef0:	003fbc06 	br	804de4 <__alt_mem_onchip_mem+0xff7fcde4>
  804ef4:	4444b03a 	or	r2,r8,r17
  804ef8:	8000871e 	bne	r16,zero,805118 <__adddf3+0x790>
  804efc:	1000ba26 	beq	r2,zero,8051e8 <__adddf3+0x860>
  804f00:	4984b03a 	or	r2,r9,r6
  804f04:	103ebf26 	beq	r2,zero,804a04 <__alt_mem_onchip_mem+0xff7fca04>
  804f08:	8985883a 	add	r2,r17,r6
  804f0c:	4247883a 	add	r3,r8,r9
  804f10:	1451803a 	cmpltu	r8,r2,r17
  804f14:	40d1883a 	add	r8,r8,r3
  804f18:	40c0202c 	andhi	r3,r8,128
  804f1c:	1023883a 	mov	r17,r2
  804f20:	183f1a26 	beq	r3,zero,804b8c <__alt_mem_onchip_mem+0xff7fcb8c>
  804f24:	00bfe034 	movhi	r2,65408
  804f28:	10bfffc4 	addi	r2,r2,-1
  804f2c:	2021883a 	mov	r16,r4
  804f30:	4090703a 	and	r8,r8,r2
  804f34:	003eb306 	br	804a04 <__alt_mem_onchip_mem+0xff7fca04>
  804f38:	4444b03a 	or	r2,r8,r17
  804f3c:	8000291e 	bne	r16,zero,804fe4 <__adddf3+0x65c>
  804f40:	10004b1e 	bne	r2,zero,805070 <__adddf3+0x6e8>
  804f44:	4990b03a 	or	r8,r9,r6
  804f48:	40008b26 	beq	r8,zero,805178 <__adddf3+0x7f0>
  804f4c:	4811883a 	mov	r8,r9
  804f50:	3023883a 	mov	r17,r6
  804f54:	3825883a 	mov	r18,r7
  804f58:	003eaa06 	br	804a04 <__alt_mem_onchip_mem+0xff7fca04>
  804f5c:	1021883a 	mov	r16,r2
  804f60:	0011883a 	mov	r8,zero
  804f64:	0005883a 	mov	r2,zero
  804f68:	003f0f06 	br	804ba8 <__alt_mem_onchip_mem+0xff7fcba8>
  804f6c:	217ff804 	addi	r5,r4,-32
  804f70:	00800804 	movi	r2,32
  804f74:	494ad83a 	srl	r5,r9,r5
  804f78:	20807d26 	beq	r4,r2,805170 <__adddf3+0x7e8>
  804f7c:	00801004 	movi	r2,64
  804f80:	1109c83a 	sub	r4,r2,r4
  804f84:	4912983a 	sll	r9,r9,r4
  804f88:	498cb03a 	or	r6,r9,r6
  804f8c:	300cc03a 	cmpne	r6,r6,zero
  804f90:	298ab03a 	or	r5,r5,r6
  804f94:	0013883a 	mov	r9,zero
  804f98:	003f1506 	br	804bf0 <__alt_mem_onchip_mem+0xff7fcbf0>
  804f9c:	0101ffc4 	movi	r4,2047
  804fa0:	113f9a1e 	bne	r2,r4,804e0c <__alt_mem_onchip_mem+0xff7fce0c>
  804fa4:	4811883a 	mov	r8,r9
  804fa8:	3023883a 	mov	r17,r6
  804fac:	1021883a 	mov	r16,r2
  804fb0:	3825883a 	mov	r18,r7
  804fb4:	003e9306 	br	804a04 <__alt_mem_onchip_mem+0xff7fca04>
  804fb8:	8000161e 	bne	r16,zero,805014 <__adddf3+0x68c>
  804fbc:	444ab03a 	or	r5,r8,r17
  804fc0:	28005126 	beq	r5,zero,805108 <__adddf3+0x780>
  804fc4:	0108303a 	nor	r4,zero,r4
  804fc8:	20004d1e 	bne	r4,zero,805100 <__adddf3+0x778>
  804fcc:	89a3883a 	add	r17,r17,r6
  804fd0:	4253883a 	add	r9,r8,r9
  804fd4:	898d803a 	cmpltu	r6,r17,r6
  804fd8:	3251883a 	add	r8,r6,r9
  804fdc:	1021883a 	mov	r16,r2
  804fe0:	003f0806 	br	804c04 <__alt_mem_onchip_mem+0xff7fcc04>
  804fe4:	1000301e 	bne	r2,zero,8050a8 <__adddf3+0x720>
  804fe8:	4984b03a 	or	r2,r9,r6
  804fec:	10007126 	beq	r2,zero,8051b4 <__adddf3+0x82c>
  804ff0:	4811883a 	mov	r8,r9
  804ff4:	3023883a 	mov	r17,r6
  804ff8:	3825883a 	mov	r18,r7
  804ffc:	0401ffc4 	movi	r16,2047
  805000:	003e8006 	br	804a04 <__alt_mem_onchip_mem+0xff7fca04>
  805004:	4462b03a 	or	r17,r8,r17
  805008:	8822c03a 	cmpne	r17,r17,zero
  80500c:	0007883a 	mov	r3,zero
  805010:	003f8b06 	br	804e40 <__alt_mem_onchip_mem+0xff7fce40>
  805014:	0141ffc4 	movi	r5,2047
  805018:	11403b26 	beq	r2,r5,805108 <__adddf3+0x780>
  80501c:	0109c83a 	sub	r4,zero,r4
  805020:	42002034 	orhi	r8,r8,128
  805024:	01400e04 	movi	r5,56
  805028:	29006716 	blt	r5,r4,8051c8 <__adddf3+0x840>
  80502c:	014007c4 	movi	r5,31
  805030:	29007016 	blt	r5,r4,8051f4 <__adddf3+0x86c>
  805034:	01400804 	movi	r5,32
  805038:	290bc83a 	sub	r5,r5,r4
  80503c:	4154983a 	sll	r10,r8,r5
  805040:	890ed83a 	srl	r7,r17,r4
  805044:	894a983a 	sll	r5,r17,r5
  805048:	4108d83a 	srl	r4,r8,r4
  80504c:	51e2b03a 	or	r17,r10,r7
  805050:	280ac03a 	cmpne	r5,r5,zero
  805054:	8962b03a 	or	r17,r17,r5
  805058:	89a3883a 	add	r17,r17,r6
  80505c:	2253883a 	add	r9,r4,r9
  805060:	898d803a 	cmpltu	r6,r17,r6
  805064:	3251883a 	add	r8,r6,r9
  805068:	1021883a 	mov	r16,r2
  80506c:	003ee506 	br	804c04 <__alt_mem_onchip_mem+0xff7fcc04>
  805070:	4984b03a 	or	r2,r9,r6
  805074:	103e6326 	beq	r2,zero,804a04 <__alt_mem_onchip_mem+0xff7fca04>
  805078:	8987c83a 	sub	r3,r17,r6
  80507c:	88c9803a 	cmpltu	r4,r17,r3
  805080:	4245c83a 	sub	r2,r8,r9
  805084:	1105c83a 	sub	r2,r2,r4
  805088:	1100202c 	andhi	r4,r2,128
  80508c:	203ebb26 	beq	r4,zero,804b7c <__alt_mem_onchip_mem+0xff7fcb7c>
  805090:	3463c83a 	sub	r17,r6,r17
  805094:	4a07c83a 	sub	r3,r9,r8
  805098:	344d803a 	cmpltu	r6,r6,r17
  80509c:	1991c83a 	sub	r8,r3,r6
  8050a0:	3825883a 	mov	r18,r7
  8050a4:	003e5706 	br	804a04 <__alt_mem_onchip_mem+0xff7fca04>
  8050a8:	4984b03a 	or	r2,r9,r6
  8050ac:	10002e26 	beq	r2,zero,805168 <__adddf3+0x7e0>
  8050b0:	4004d0fa 	srli	r2,r8,3
  8050b4:	8822d0fa 	srli	r17,r17,3
  8050b8:	4010977a 	slli	r8,r8,29
  8050bc:	10c0022c 	andhi	r3,r2,8
  8050c0:	4462b03a 	or	r17,r8,r17
  8050c4:	18000826 	beq	r3,zero,8050e8 <__adddf3+0x760>
  8050c8:	4808d0fa 	srli	r4,r9,3
  8050cc:	20c0022c 	andhi	r3,r4,8
  8050d0:	1800051e 	bne	r3,zero,8050e8 <__adddf3+0x760>
  8050d4:	300cd0fa 	srli	r6,r6,3
  8050d8:	4806977a 	slli	r3,r9,29
  8050dc:	2005883a 	mov	r2,r4
  8050e0:	3825883a 	mov	r18,r7
  8050e4:	19a2b03a 	or	r17,r3,r6
  8050e8:	8810d77a 	srli	r8,r17,29
  8050ec:	100490fa 	slli	r2,r2,3
  8050f0:	882290fa 	slli	r17,r17,3
  8050f4:	0401ffc4 	movi	r16,2047
  8050f8:	4090b03a 	or	r8,r8,r2
  8050fc:	003e4106 	br	804a04 <__alt_mem_onchip_mem+0xff7fca04>
  805100:	0141ffc4 	movi	r5,2047
  805104:	117fc71e 	bne	r2,r5,805024 <__alt_mem_onchip_mem+0xff7fd024>
  805108:	4811883a 	mov	r8,r9
  80510c:	3023883a 	mov	r17,r6
  805110:	1021883a 	mov	r16,r2
  805114:	003e3b06 	br	804a04 <__alt_mem_onchip_mem+0xff7fca04>
  805118:	10002f26 	beq	r2,zero,8051d8 <__adddf3+0x850>
  80511c:	4984b03a 	or	r2,r9,r6
  805120:	10001126 	beq	r2,zero,805168 <__adddf3+0x7e0>
  805124:	4004d0fa 	srli	r2,r8,3
  805128:	8822d0fa 	srli	r17,r17,3
  80512c:	4010977a 	slli	r8,r8,29
  805130:	10c0022c 	andhi	r3,r2,8
  805134:	4462b03a 	or	r17,r8,r17
  805138:	183feb26 	beq	r3,zero,8050e8 <__alt_mem_onchip_mem+0xff7fd0e8>
  80513c:	4808d0fa 	srli	r4,r9,3
  805140:	20c0022c 	andhi	r3,r4,8
  805144:	183fe81e 	bne	r3,zero,8050e8 <__alt_mem_onchip_mem+0xff7fd0e8>
  805148:	300cd0fa 	srli	r6,r6,3
  80514c:	4806977a 	slli	r3,r9,29
  805150:	2005883a 	mov	r2,r4
  805154:	19a2b03a 	or	r17,r3,r6
  805158:	003fe306 	br	8050e8 <__alt_mem_onchip_mem+0xff7fd0e8>
  80515c:	0011883a 	mov	r8,zero
  805160:	0005883a 	mov	r2,zero
  805164:	003e3f06 	br	804a64 <__alt_mem_onchip_mem+0xff7fca64>
  805168:	0401ffc4 	movi	r16,2047
  80516c:	003e2506 	br	804a04 <__alt_mem_onchip_mem+0xff7fca04>
  805170:	0013883a 	mov	r9,zero
  805174:	003f8406 	br	804f88 <__alt_mem_onchip_mem+0xff7fcf88>
  805178:	0005883a 	mov	r2,zero
  80517c:	0007883a 	mov	r3,zero
  805180:	003e8906 	br	804ba8 <__alt_mem_onchip_mem+0xff7fcba8>
  805184:	197ff804 	addi	r5,r3,-32
  805188:	01000804 	movi	r4,32
  80518c:	414ad83a 	srl	r5,r8,r5
  805190:	19002426 	beq	r3,r4,805224 <__adddf3+0x89c>
  805194:	01001004 	movi	r4,64
  805198:	20c7c83a 	sub	r3,r4,r3
  80519c:	40c6983a 	sll	r3,r8,r3
  8051a0:	1c46b03a 	or	r3,r3,r17
  8051a4:	1806c03a 	cmpne	r3,r3,zero
  8051a8:	28e2b03a 	or	r17,r5,r3
  8051ac:	0007883a 	mov	r3,zero
  8051b0:	003f2306 	br	804e40 <__alt_mem_onchip_mem+0xff7fce40>
  8051b4:	0007883a 	mov	r3,zero
  8051b8:	5811883a 	mov	r8,r11
  8051bc:	00bfffc4 	movi	r2,-1
  8051c0:	0401ffc4 	movi	r16,2047
  8051c4:	003e7806 	br	804ba8 <__alt_mem_onchip_mem+0xff7fcba8>
  8051c8:	4462b03a 	or	r17,r8,r17
  8051cc:	8822c03a 	cmpne	r17,r17,zero
  8051d0:	0009883a 	mov	r4,zero
  8051d4:	003fa006 	br	805058 <__alt_mem_onchip_mem+0xff7fd058>
  8051d8:	4811883a 	mov	r8,r9
  8051dc:	3023883a 	mov	r17,r6
  8051e0:	0401ffc4 	movi	r16,2047
  8051e4:	003e0706 	br	804a04 <__alt_mem_onchip_mem+0xff7fca04>
  8051e8:	4811883a 	mov	r8,r9
  8051ec:	3023883a 	mov	r17,r6
  8051f0:	003e0406 	br	804a04 <__alt_mem_onchip_mem+0xff7fca04>
  8051f4:	21fff804 	addi	r7,r4,-32
  8051f8:	01400804 	movi	r5,32
  8051fc:	41ced83a 	srl	r7,r8,r7
  805200:	21400a26 	beq	r4,r5,80522c <__adddf3+0x8a4>
  805204:	01401004 	movi	r5,64
  805208:	2909c83a 	sub	r4,r5,r4
  80520c:	4108983a 	sll	r4,r8,r4
  805210:	2448b03a 	or	r4,r4,r17
  805214:	2008c03a 	cmpne	r4,r4,zero
  805218:	3922b03a 	or	r17,r7,r4
  80521c:	0009883a 	mov	r4,zero
  805220:	003f8d06 	br	805058 <__alt_mem_onchip_mem+0xff7fd058>
  805224:	0007883a 	mov	r3,zero
  805228:	003fdd06 	br	8051a0 <__alt_mem_onchip_mem+0xff7fd1a0>
  80522c:	0009883a 	mov	r4,zero
  805230:	003ff706 	br	805210 <__alt_mem_onchip_mem+0xff7fd210>

00805234 <__gedf2>:
  805234:	2804d53a 	srli	r2,r5,20
  805238:	3806d53a 	srli	r3,r7,20
  80523c:	02000434 	movhi	r8,16
  805240:	423fffc4 	addi	r8,r8,-1
  805244:	1081ffcc 	andi	r2,r2,2047
  805248:	0241ffc4 	movi	r9,2047
  80524c:	2a14703a 	and	r10,r5,r8
  805250:	18c1ffcc 	andi	r3,r3,2047
  805254:	3a10703a 	and	r8,r7,r8
  805258:	280ad7fa 	srli	r5,r5,31
  80525c:	380ed7fa 	srli	r7,r7,31
  805260:	12401d26 	beq	r2,r9,8052d8 <__gedf2+0xa4>
  805264:	0241ffc4 	movi	r9,2047
  805268:	1a401226 	beq	r3,r9,8052b4 <__gedf2+0x80>
  80526c:	1000081e 	bne	r2,zero,805290 <__gedf2+0x5c>
  805270:	2296b03a 	or	r11,r4,r10
  805274:	5813003a 	cmpeq	r9,r11,zero
  805278:	1800091e 	bne	r3,zero,8052a0 <__gedf2+0x6c>
  80527c:	3218b03a 	or	r12,r6,r8
  805280:	6000071e 	bne	r12,zero,8052a0 <__gedf2+0x6c>
  805284:	0005883a 	mov	r2,zero
  805288:	5800101e 	bne	r11,zero,8052cc <__gedf2+0x98>
  80528c:	f800283a 	ret
  805290:	18000c1e 	bne	r3,zero,8052c4 <__gedf2+0x90>
  805294:	3212b03a 	or	r9,r6,r8
  805298:	48000c26 	beq	r9,zero,8052cc <__gedf2+0x98>
  80529c:	0013883a 	mov	r9,zero
  8052a0:	39c03fcc 	andi	r7,r7,255
  8052a4:	48000826 	beq	r9,zero,8052c8 <__gedf2+0x94>
  8052a8:	38000926 	beq	r7,zero,8052d0 <__gedf2+0x9c>
  8052ac:	00800044 	movi	r2,1
  8052b0:	f800283a 	ret
  8052b4:	3212b03a 	or	r9,r6,r8
  8052b8:	483fec26 	beq	r9,zero,80526c <__alt_mem_onchip_mem+0xff7fd26c>
  8052bc:	00bfff84 	movi	r2,-2
  8052c0:	f800283a 	ret
  8052c4:	39c03fcc 	andi	r7,r7,255
  8052c8:	29c00626 	beq	r5,r7,8052e4 <__gedf2+0xb0>
  8052cc:	283ff726 	beq	r5,zero,8052ac <__alt_mem_onchip_mem+0xff7fd2ac>
  8052d0:	00bfffc4 	movi	r2,-1
  8052d4:	f800283a 	ret
  8052d8:	2292b03a 	or	r9,r4,r10
  8052dc:	483fe126 	beq	r9,zero,805264 <__alt_mem_onchip_mem+0xff7fd264>
  8052e0:	003ff606 	br	8052bc <__alt_mem_onchip_mem+0xff7fd2bc>
  8052e4:	18bff916 	blt	r3,r2,8052cc <__alt_mem_onchip_mem+0xff7fd2cc>
  8052e8:	10c00316 	blt	r2,r3,8052f8 <__gedf2+0xc4>
  8052ec:	42bff736 	bltu	r8,r10,8052cc <__alt_mem_onchip_mem+0xff7fd2cc>
  8052f0:	52000326 	beq	r10,r8,805300 <__gedf2+0xcc>
  8052f4:	5200042e 	bgeu	r10,r8,805308 <__gedf2+0xd4>
  8052f8:	283fec1e 	bne	r5,zero,8052ac <__alt_mem_onchip_mem+0xff7fd2ac>
  8052fc:	003ff406 	br	8052d0 <__alt_mem_onchip_mem+0xff7fd2d0>
  805300:	313ff236 	bltu	r6,r4,8052cc <__alt_mem_onchip_mem+0xff7fd2cc>
  805304:	21bffc36 	bltu	r4,r6,8052f8 <__alt_mem_onchip_mem+0xff7fd2f8>
  805308:	0005883a 	mov	r2,zero
  80530c:	f800283a 	ret

00805310 <__ledf2>:
  805310:	2804d53a 	srli	r2,r5,20
  805314:	3810d53a 	srli	r8,r7,20
  805318:	00c00434 	movhi	r3,16
  80531c:	18ffffc4 	addi	r3,r3,-1
  805320:	1081ffcc 	andi	r2,r2,2047
  805324:	0241ffc4 	movi	r9,2047
  805328:	28d4703a 	and	r10,r5,r3
  80532c:	4201ffcc 	andi	r8,r8,2047
  805330:	38c6703a 	and	r3,r7,r3
  805334:	280ad7fa 	srli	r5,r5,31
  805338:	380ed7fa 	srli	r7,r7,31
  80533c:	12401f26 	beq	r2,r9,8053bc <__ledf2+0xac>
  805340:	0241ffc4 	movi	r9,2047
  805344:	42401426 	beq	r8,r9,805398 <__ledf2+0x88>
  805348:	1000091e 	bne	r2,zero,805370 <__ledf2+0x60>
  80534c:	2296b03a 	or	r11,r4,r10
  805350:	5813003a 	cmpeq	r9,r11,zero
  805354:	29403fcc 	andi	r5,r5,255
  805358:	40000a1e 	bne	r8,zero,805384 <__ledf2+0x74>
  80535c:	30d8b03a 	or	r12,r6,r3
  805360:	6000081e 	bne	r12,zero,805384 <__ledf2+0x74>
  805364:	0005883a 	mov	r2,zero
  805368:	5800111e 	bne	r11,zero,8053b0 <__ledf2+0xa0>
  80536c:	f800283a 	ret
  805370:	29403fcc 	andi	r5,r5,255
  805374:	40000c1e 	bne	r8,zero,8053a8 <__ledf2+0x98>
  805378:	30d2b03a 	or	r9,r6,r3
  80537c:	48000c26 	beq	r9,zero,8053b0 <__ledf2+0xa0>
  805380:	0013883a 	mov	r9,zero
  805384:	39c03fcc 	andi	r7,r7,255
  805388:	48000826 	beq	r9,zero,8053ac <__ledf2+0x9c>
  80538c:	38001126 	beq	r7,zero,8053d4 <__ledf2+0xc4>
  805390:	00800044 	movi	r2,1
  805394:	f800283a 	ret
  805398:	30d2b03a 	or	r9,r6,r3
  80539c:	483fea26 	beq	r9,zero,805348 <__alt_mem_onchip_mem+0xff7fd348>
  8053a0:	00800084 	movi	r2,2
  8053a4:	f800283a 	ret
  8053a8:	39c03fcc 	andi	r7,r7,255
  8053ac:	39400726 	beq	r7,r5,8053cc <__ledf2+0xbc>
  8053b0:	2800081e 	bne	r5,zero,8053d4 <__ledf2+0xc4>
  8053b4:	00800044 	movi	r2,1
  8053b8:	f800283a 	ret
  8053bc:	2292b03a 	or	r9,r4,r10
  8053c0:	483fdf26 	beq	r9,zero,805340 <__alt_mem_onchip_mem+0xff7fd340>
  8053c4:	00800084 	movi	r2,2
  8053c8:	f800283a 	ret
  8053cc:	4080030e 	bge	r8,r2,8053dc <__ledf2+0xcc>
  8053d0:	383fef26 	beq	r7,zero,805390 <__alt_mem_onchip_mem+0xff7fd390>
  8053d4:	00bfffc4 	movi	r2,-1
  8053d8:	f800283a 	ret
  8053dc:	123feb16 	blt	r2,r8,80538c <__alt_mem_onchip_mem+0xff7fd38c>
  8053e0:	1abff336 	bltu	r3,r10,8053b0 <__alt_mem_onchip_mem+0xff7fd3b0>
  8053e4:	50c00326 	beq	r10,r3,8053f4 <__ledf2+0xe4>
  8053e8:	50c0042e 	bgeu	r10,r3,8053fc <__ledf2+0xec>
  8053ec:	283fe81e 	bne	r5,zero,805390 <__alt_mem_onchip_mem+0xff7fd390>
  8053f0:	003ff806 	br	8053d4 <__alt_mem_onchip_mem+0xff7fd3d4>
  8053f4:	313fee36 	bltu	r6,r4,8053b0 <__alt_mem_onchip_mem+0xff7fd3b0>
  8053f8:	21bffc36 	bltu	r4,r6,8053ec <__alt_mem_onchip_mem+0xff7fd3ec>
  8053fc:	0005883a 	mov	r2,zero
  805400:	f800283a 	ret

00805404 <__muldf3>:
  805404:	defff304 	addi	sp,sp,-52
  805408:	2804d53a 	srli	r2,r5,20
  80540c:	dd800915 	stw	r22,36(sp)
  805410:	282cd7fa 	srli	r22,r5,31
  805414:	dc000315 	stw	r16,12(sp)
  805418:	04000434 	movhi	r16,16
  80541c:	dd400815 	stw	r21,32(sp)
  805420:	dc800515 	stw	r18,20(sp)
  805424:	843fffc4 	addi	r16,r16,-1
  805428:	dfc00c15 	stw	ra,48(sp)
  80542c:	df000b15 	stw	fp,44(sp)
  805430:	ddc00a15 	stw	r23,40(sp)
  805434:	dd000715 	stw	r20,28(sp)
  805438:	dcc00615 	stw	r19,24(sp)
  80543c:	dc400415 	stw	r17,16(sp)
  805440:	1481ffcc 	andi	r18,r2,2047
  805444:	2c20703a 	and	r16,r5,r16
  805448:	b02b883a 	mov	r21,r22
  80544c:	b2403fcc 	andi	r9,r22,255
  805450:	90006026 	beq	r18,zero,8055d4 <__muldf3+0x1d0>
  805454:	0081ffc4 	movi	r2,2047
  805458:	2029883a 	mov	r20,r4
  80545c:	90803626 	beq	r18,r2,805538 <__muldf3+0x134>
  805460:	80800434 	orhi	r2,r16,16
  805464:	100490fa 	slli	r2,r2,3
  805468:	2020d77a 	srli	r16,r4,29
  80546c:	202890fa 	slli	r20,r4,3
  805470:	94bf0044 	addi	r18,r18,-1023
  805474:	80a0b03a 	or	r16,r16,r2
  805478:	0027883a 	mov	r19,zero
  80547c:	0039883a 	mov	fp,zero
  805480:	3804d53a 	srli	r2,r7,20
  805484:	382ed7fa 	srli	r23,r7,31
  805488:	04400434 	movhi	r17,16
  80548c:	8c7fffc4 	addi	r17,r17,-1
  805490:	1081ffcc 	andi	r2,r2,2047
  805494:	3011883a 	mov	r8,r6
  805498:	3c62703a 	and	r17,r7,r17
  80549c:	ba803fcc 	andi	r10,r23,255
  8054a0:	10006d26 	beq	r2,zero,805658 <__muldf3+0x254>
  8054a4:	00c1ffc4 	movi	r3,2047
  8054a8:	10c06526 	beq	r2,r3,805640 <__muldf3+0x23c>
  8054ac:	88c00434 	orhi	r3,r17,16
  8054b0:	180690fa 	slli	r3,r3,3
  8054b4:	3022d77a 	srli	r17,r6,29
  8054b8:	301090fa 	slli	r8,r6,3
  8054bc:	10bf0044 	addi	r2,r2,-1023
  8054c0:	88e2b03a 	or	r17,r17,r3
  8054c4:	000b883a 	mov	r5,zero
  8054c8:	9085883a 	add	r2,r18,r2
  8054cc:	2cc8b03a 	or	r4,r5,r19
  8054d0:	00c003c4 	movi	r3,15
  8054d4:	bdacf03a 	xor	r22,r23,r22
  8054d8:	12c00044 	addi	r11,r2,1
  8054dc:	19009936 	bltu	r3,r4,805744 <__muldf3+0x340>
  8054e0:	200890ba 	slli	r4,r4,2
  8054e4:	00c02034 	movhi	r3,128
  8054e8:	18d53e04 	addi	r3,r3,21752
  8054ec:	20c9883a 	add	r4,r4,r3
  8054f0:	20c00017 	ldw	r3,0(r4)
  8054f4:	1800683a 	jmp	r3
  8054f8:	00805744 	movi	r2,349
  8054fc:	00805558 	cmpnei	r2,zero,341
  805500:	00805558 	cmpnei	r2,zero,341
  805504:	00805554 	movui	r2,341
  805508:	00805720 	cmpeqi	r2,zero,348
  80550c:	00805720 	cmpeqi	r2,zero,348
  805510:	00805708 	cmpgei	r2,zero,348
  805514:	00805554 	movui	r2,341
  805518:	00805720 	cmpeqi	r2,zero,348
  80551c:	00805708 	cmpgei	r2,zero,348
  805520:	00805720 	cmpeqi	r2,zero,348
  805524:	00805554 	movui	r2,341
  805528:	00805730 	cmpltui	r2,zero,348
  80552c:	00805730 	cmpltui	r2,zero,348
  805530:	00805730 	cmpltui	r2,zero,348
  805534:	0080594c 	andi	r2,zero,357
  805538:	2404b03a 	or	r2,r4,r16
  80553c:	10006f1e 	bne	r2,zero,8056fc <__muldf3+0x2f8>
  805540:	04c00204 	movi	r19,8
  805544:	0021883a 	mov	r16,zero
  805548:	0029883a 	mov	r20,zero
  80554c:	07000084 	movi	fp,2
  805550:	003fcb06 	br	805480 <__alt_mem_onchip_mem+0xff7fd480>
  805554:	502d883a 	mov	r22,r10
  805558:	00800084 	movi	r2,2
  80555c:	28805726 	beq	r5,r2,8056bc <__muldf3+0x2b8>
  805560:	008000c4 	movi	r2,3
  805564:	28816626 	beq	r5,r2,805b00 <__muldf3+0x6fc>
  805568:	00800044 	movi	r2,1
  80556c:	2881411e 	bne	r5,r2,805a74 <__muldf3+0x670>
  805570:	b02b883a 	mov	r21,r22
  805574:	0005883a 	mov	r2,zero
  805578:	000b883a 	mov	r5,zero
  80557c:	0029883a 	mov	r20,zero
  805580:	1004953a 	slli	r2,r2,20
  805584:	a8c03fcc 	andi	r3,r21,255
  805588:	04400434 	movhi	r17,16
  80558c:	8c7fffc4 	addi	r17,r17,-1
  805590:	180697fa 	slli	r3,r3,31
  805594:	2c4a703a 	and	r5,r5,r17
  805598:	288ab03a 	or	r5,r5,r2
  80559c:	28c6b03a 	or	r3,r5,r3
  8055a0:	a005883a 	mov	r2,r20
  8055a4:	dfc00c17 	ldw	ra,48(sp)
  8055a8:	df000b17 	ldw	fp,44(sp)
  8055ac:	ddc00a17 	ldw	r23,40(sp)
  8055b0:	dd800917 	ldw	r22,36(sp)
  8055b4:	dd400817 	ldw	r21,32(sp)
  8055b8:	dd000717 	ldw	r20,28(sp)
  8055bc:	dcc00617 	ldw	r19,24(sp)
  8055c0:	dc800517 	ldw	r18,20(sp)
  8055c4:	dc400417 	ldw	r17,16(sp)
  8055c8:	dc000317 	ldw	r16,12(sp)
  8055cc:	dec00d04 	addi	sp,sp,52
  8055d0:	f800283a 	ret
  8055d4:	2404b03a 	or	r2,r4,r16
  8055d8:	2027883a 	mov	r19,r4
  8055dc:	10004226 	beq	r2,zero,8056e8 <__muldf3+0x2e4>
  8055e0:	8000fc26 	beq	r16,zero,8059d4 <__muldf3+0x5d0>
  8055e4:	8009883a 	mov	r4,r16
  8055e8:	d9800215 	stw	r6,8(sp)
  8055ec:	d9c00015 	stw	r7,0(sp)
  8055f0:	da400115 	stw	r9,4(sp)
  8055f4:	08064c00 	call	8064c0 <__clzsi2>
  8055f8:	d9800217 	ldw	r6,8(sp)
